

Microchip MPLAB XC8 Assembler V3.10 build 20250813170317 
                                                                                               Tue Nov  4 20:33:27 2025

Microchip MPLAB XC8 C Compiler v3.10 (Free license) build 20250813170317 Og1 
     1                           	processor	16F877A
     2                           	pagewidth 120
     3                           	opt	flic
     4                           	psect	idataBANK0,global,class=CODE,space=0,delta=2,noexec
     5                           	psect	idataBANK1,global,class=CODE,space=0,delta=2,noexec
     6                           	psect	strings,global,class=STRING,space=0,delta=2,noexec
     7                           	psect	cinit,global,class=CODE,space=0,merge=1,delta=2
     8                           	psect	bssBANK0,global,class=BANK0,space=1,delta=1,noexec
     9                           	psect	dataBANK0,global,class=BANK0,space=1,delta=1,noexec
    10                           	psect	bssBANK1,global,class=BANK1,space=1,delta=1,noexec
    11                           	psect	dataBANK1,global,class=BANK1,space=1,delta=1,noexec
    12                           	psect	inittext,global,class=CODE,space=0,delta=2
    13                           	psect	clrtext,global,class=CODE,space=0,delta=2
    14                           	psect	cstackCOMMON,global,class=COMMON,space=1,delta=1,noexec
    15                           	psect	cstackBANK0,global,class=BANK0,space=1,delta=1,noexec
    16                           	psect	maintext,global,class=CODE,space=0,split=1,delta=2
    17                           	psect	text1,local,class=CODE,space=0,merge=1,delta=2
    18                           	psect	text2,local,class=CODE,space=0,merge=1,delta=2,group=3
    19                           	psect	text3,local,class=CODE,space=0,merge=1,delta=2,group=1
    20                           	psect	text4,local,class=CODE,space=0,merge=1,delta=2,group=1
    21                           	psect	text5,local,class=CODE,space=0,merge=1,delta=2,group=3
    22                           	psect	text6,local,class=CODE,space=0,merge=1,delta=2
    23                           	psect	text7,local,class=CODE,space=0,merge=1,delta=2,group=3
    24                           	psect	text8,local,class=CODE,space=0,merge=1,delta=2,group=2
    25                           	psect	text9,local,class=CODE,space=0,merge=1,delta=2,group=2
    26                           	psect	text10,local,class=CODE,space=0,merge=1,delta=2
    27                           	psect	text11,local,class=CODE,space=0,merge=1,delta=2
    28                           	psect	text12,local,class=CODE,space=0,merge=1,delta=2
    29                           	psect	text13,local,class=CODE,space=0,merge=1,delta=2
    30                           	psect	text14,local,class=CODE,space=0,merge=1,delta=2
    31                           	psect	text15,local,class=CODE,space=0,merge=1,delta=2
    32                           	psect	text16,local,class=CODE,space=0,merge=1,delta=2
    33                           	psect	text17,local,class=CODE,space=0,merge=1,delta=2
    34                           	psect	text18,local,class=CODE,space=0,merge=1,delta=2
    35                           	psect	text19,local,class=CODE,space=0,merge=1,delta=2
    36                           	psect	text20,local,class=CODE,space=0,merge=1,delta=2
    37                           	dabs	1,0x7E,2
    38     0000                     
    39                           ; Generated 12/10/2023 GMT
    40                           ; 
    41                           ; Copyright © 2023, Microchip Technology Inc. and its subsidiaries ("Microchip")
    42                           ; All rights reserved.
    43                           ; 
    44                           ; This software is developed by Microchip Technology Inc. and its subsidiaries ("Microch
      +                          ip").
    45                           ; 
    46                           ; Redistribution and use in source and binary forms, with or without modification, are
    47                           ; permitted provided that the following conditions are met:
    48                           ; 
    49                           ;     1. Redistributions of source code must retain the above copyright notice, this lis
      +                          t of
    50                           ;        conditions and the following disclaimer.
    51                           ; 
    52                           ;     2. Redistributions in binary form must reproduce the above copyright notice, this 
      +                          list
    53                           ;        of conditions and the following disclaimer in the documentation and/or other
    54                           ;        materials provided with the distribution. Publication is not required when
    55                           ;        this file is used in an embedded application.
    56                           ; 
    57                           ;     3. Microchip's name may not be used to endorse or promote products derived from th
      +                          is
    58                           ;        software without specific prior written permission.
    59                           ; 
    60                           ; THIS SOFTWARE IS PROVIDED BY MICROCHIP "AS IS" AND ANY EXPRESS OR IMPLIED WARRANTIES,
    61                           ; INCLUDING, BUT NOT LIMITED TO, THE IMPLIED WARRANTIES OF MERCHANTABILITY AND FITNESS F
      +                          OR
    62                           ; PURPOSE ARE DISCLAIMED.  IN NO EVENT SHALL MICROCHIP BE LIABLE FOR ANY DIRECT, INDIREC
      +                          T,
    63                           ; INCIDENTAL, SPECIAL, EXEMPLARY, OR CONSEQUENTIAL DAMAGES (INCLUDING BUT NOT LIMITED TO
    64                           ; PROCUREMENT OF SUBSTITUTE GOODS OR SERVICES; LOSS OF USE, DATA OR PROFITS; OR BUSINESS
    65                           ; INTERRUPTION) HOWSOEVER CAUSED AND ON ANY THEORY OF LIABILITY, WHETHER IN CONTRACT, ST
      +                          RICT
    66                           ; LIABILITY, OR TORT (INCLUDING NEGLIGENCE OR OTHERWISE) ARISING IN ANY WAY OUT OF THE U
      +                          SE OF
    67                           ; THIS SOFTWARE, EVEN IF ADVISED OF THE POSSIBILITY OF SUCH DAMAGE.
    68                           ; 
    69                           ; 
    70                           ; Code-generator required, PIC16F877A Definitions
    71                           ; 
    72                           ; SFR Addresses
    73     0004                     fsr             equ	4
    74     0004                     fsr0            equ	4
    75     0000                     indf            equ	0
    76     0000                     indf0           equ	0
    77     0002                     pc              equ	2
    78     0002                     pcl             equ	2
    79     000A                     pclath          equ	10
    80     0003                     status          equ	3
    81     0000                     INDF            equ	0	;# 
    82     0001                     TMR0            equ	1	;# 
    83     0002                     PCL             equ	2	;# 
    84     0003                     STATUS          equ	3	;# 
    85     0004                     FSR             equ	4	;# 
    86     0005                     PORTA           equ	5	;# 
    87     0006                     PORTB           equ	6	;# 
    88     0007                     PORTC           equ	7	;# 
    89     0008                     PORTD           equ	8	;# 
    90     0009                     PORTE           equ	9	;# 
    91     000A                     PCLATH          equ	10	;# 
    92     000B                     INTCON          equ	11	;# 
    93     000C                     PIR1            equ	12	;# 
    94     000D                     PIR2            equ	13	;# 
    95     000E                     TMR1            equ	14	;# 
    96     000E                     TMR1L           equ	14	;# 
    97     000F                     TMR1H           equ	15	;# 
    98     0010                     T1CON           equ	16	;# 
    99     0011                     TMR2            equ	17	;# 
   100     0012                     T2CON           equ	18	;# 
   101     0013                     SSPBUF          equ	19	;# 
   102     0014                     SSPCON          equ	20	;# 
   103     0015                     CCPR1           equ	21	;# 
   104     0015                     CCPR1L          equ	21	;# 
   105     0016                     CCPR1H          equ	22	;# 
   106     0017                     CCP1CON         equ	23	;# 
   107     0018                     RCSTA           equ	24	;# 
   108     0019                     TXREG           equ	25	;# 
   109     001A                     RCREG           equ	26	;# 
   110     001B                     CCPR2           equ	27	;# 
   111     001B                     CCPR2L          equ	27	;# 
   112     001C                     CCPR2H          equ	28	;# 
   113     001D                     CCP2CON         equ	29	;# 
   114     001E                     ADRESH          equ	30	;# 
   115     001F                     ADCON0          equ	31	;# 
   116     0081                     OPTION_REG      equ	129	;# 
   117     0085                     TRISA           equ	133	;# 
   118     0086                     TRISB           equ	134	;# 
   119     0087                     TRISC           equ	135	;# 
   120     0088                     TRISD           equ	136	;# 
   121     0089                     TRISE           equ	137	;# 
   122     008C                     PIE1            equ	140	;# 
   123     008D                     PIE2            equ	141	;# 
   124     008E                     PCON            equ	142	;# 
   125     0091                     SSPCON2         equ	145	;# 
   126     0092                     PR2             equ	146	;# 
   127     0093                     SSPADD          equ	147	;# 
   128     0094                     SSPSTAT         equ	148	;# 
   129     0098                     TXSTA           equ	152	;# 
   130     0099                     SPBRG           equ	153	;# 
   131     009C                     CMCON           equ	156	;# 
   132     009D                     CVRCON          equ	157	;# 
   133     009E                     ADRESL          equ	158	;# 
   134     009F                     ADCON1          equ	159	;# 
   135     010C                     EEDATA          equ	268	;# 
   136     010D                     EEADR           equ	269	;# 
   137     010E                     EEDATH          equ	270	;# 
   138     010F                     EEADRH          equ	271	;# 
   139     018C                     EECON1          equ	396	;# 
   140     018D                     EECON2          equ	397	;# 
   141     0000                     INDF            equ	0	;# 
   142     0001                     TMR0            equ	1	;# 
   143     0002                     PCL             equ	2	;# 
   144     0003                     STATUS          equ	3	;# 
   145     0004                     FSR             equ	4	;# 
   146     0005                     PORTA           equ	5	;# 
   147     0006                     PORTB           equ	6	;# 
   148     0007                     PORTC           equ	7	;# 
   149     0008                     PORTD           equ	8	;# 
   150     0009                     PORTE           equ	9	;# 
   151     000A                     PCLATH          equ	10	;# 
   152     000B                     INTCON          equ	11	;# 
   153     000C                     PIR1            equ	12	;# 
   154     000D                     PIR2            equ	13	;# 
   155     000E                     TMR1            equ	14	;# 
   156     000E                     TMR1L           equ	14	;# 
   157     000F                     TMR1H           equ	15	;# 
   158     0010                     T1CON           equ	16	;# 
   159     0011                     TMR2            equ	17	;# 
   160     0012                     T2CON           equ	18	;# 
   161     0013                     SSPBUF          equ	19	;# 
   162     0014                     SSPCON          equ	20	;# 
   163     0015                     CCPR1           equ	21	;# 
   164     0015                     CCPR1L          equ	21	;# 
   165     0016                     CCPR1H          equ	22	;# 
   166     0017                     CCP1CON         equ	23	;# 
   167     0018                     RCSTA           equ	24	;# 
   168     0019                     TXREG           equ	25	;# 
   169     001A                     RCREG           equ	26	;# 
   170     001B                     CCPR2           equ	27	;# 
   171     001B                     CCPR2L          equ	27	;# 
   172     001C                     CCPR2H          equ	28	;# 
   173     001D                     CCP2CON         equ	29	;# 
   174     001E                     ADRESH          equ	30	;# 
   175     001F                     ADCON0          equ	31	;# 
   176     0081                     OPTION_REG      equ	129	;# 
   177     0085                     TRISA           equ	133	;# 
   178     0086                     TRISB           equ	134	;# 
   179     0087                     TRISC           equ	135	;# 
   180     0088                     TRISD           equ	136	;# 
   181     0089                     TRISE           equ	137	;# 
   182     008C                     PIE1            equ	140	;# 
   183     008D                     PIE2            equ	141	;# 
   184     008E                     PCON            equ	142	;# 
   185     0091                     SSPCON2         equ	145	;# 
   186     0092                     PR2             equ	146	;# 
   187     0093                     SSPADD          equ	147	;# 
   188     0094                     SSPSTAT         equ	148	;# 
   189     0098                     TXSTA           equ	152	;# 
   190     0099                     SPBRG           equ	153	;# 
   191     009C                     CMCON           equ	156	;# 
   192     009D                     CVRCON          equ	157	;# 
   193     009E                     ADRESL          equ	158	;# 
   194     009F                     ADCON1          equ	159	;# 
   195     010C                     EEDATA          equ	268	;# 
   196     010D                     EEADR           equ	269	;# 
   197     010E                     EEDATH          equ	270	;# 
   198     010F                     EEADRH          equ	271	;# 
   199     018C                     EECON1          equ	396	;# 
   200     018D                     EECON2          equ	397	;# 
   201     0000                     INDF            equ	0	;# 
   202     0001                     TMR0            equ	1	;# 
   203     0002                     PCL             equ	2	;# 
   204     0003                     STATUS          equ	3	;# 
   205     0004                     FSR             equ	4	;# 
   206     0005                     PORTA           equ	5	;# 
   207     0006                     PORTB           equ	6	;# 
   208     0007                     PORTC           equ	7	;# 
   209     0008                     PORTD           equ	8	;# 
   210     0009                     PORTE           equ	9	;# 
   211     000A                     PCLATH          equ	10	;# 
   212     000B                     INTCON          equ	11	;# 
   213     000C                     PIR1            equ	12	;# 
   214     000D                     PIR2            equ	13	;# 
   215     000E                     TMR1            equ	14	;# 
   216     000E                     TMR1L           equ	14	;# 
   217     000F                     TMR1H           equ	15	;# 
   218     0010                     T1CON           equ	16	;# 
   219     0011                     TMR2            equ	17	;# 
   220     0012                     T2CON           equ	18	;# 
   221     0013                     SSPBUF          equ	19	;# 
   222     0014                     SSPCON          equ	20	;# 
   223     0015                     CCPR1           equ	21	;# 
   224     0015                     CCPR1L          equ	21	;# 
   225     0016                     CCPR1H          equ	22	;# 
   226     0017                     CCP1CON         equ	23	;# 
   227     0018                     RCSTA           equ	24	;# 
   228     0019                     TXREG           equ	25	;# 
   229     001A                     RCREG           equ	26	;# 
   230     001B                     CCPR2           equ	27	;# 
   231     001B                     CCPR2L          equ	27	;# 
   232     001C                     CCPR2H          equ	28	;# 
   233     001D                     CCP2CON         equ	29	;# 
   234     001E                     ADRESH          equ	30	;# 
   235     001F                     ADCON0          equ	31	;# 
   236     0081                     OPTION_REG      equ	129	;# 
   237     0085                     TRISA           equ	133	;# 
   238     0086                     TRISB           equ	134	;# 
   239     0087                     TRISC           equ	135	;# 
   240     0088                     TRISD           equ	136	;# 
   241     0089                     TRISE           equ	137	;# 
   242     008C                     PIE1            equ	140	;# 
   243     008D                     PIE2            equ	141	;# 
   244     008E                     PCON            equ	142	;# 
   245     0091                     SSPCON2         equ	145	;# 
   246     0092                     PR2             equ	146	;# 
   247     0093                     SSPADD          equ	147	;# 
   248     0094                     SSPSTAT         equ	148	;# 
   249     0098                     TXSTA           equ	152	;# 
   250     0099                     SPBRG           equ	153	;# 
   251     009C                     CMCON           equ	156	;# 
   252     009D                     CVRCON          equ	157	;# 
   253     009E                     ADRESL          equ	158	;# 
   254     009F                     ADCON1          equ	159	;# 
   255     010C                     EEDATA          equ	268	;# 
   256     010D                     EEADR           equ	269	;# 
   257     010E                     EEDATH          equ	270	;# 
   258     010F                     EEADRH          equ	271	;# 
   259     018C                     EECON1          equ	396	;# 
   260     018D                     EECON2          equ	397	;# 
   261     0000                     nosup@@$_$_CONFIG set	0	;# 
   262     0000                     nosup@@$_$_CONFIG set	0	;# 
   263     0000                     INDF            equ	0	;# 
   264     0001                     TMR0            equ	1	;# 
   265     0002                     PCL             equ	2	;# 
   266     0003                     STATUS          equ	3	;# 
   267     0004                     FSR             equ	4	;# 
   268     0005                     PORTA           equ	5	;# 
   269     0006                     PORTB           equ	6	;# 
   270     0007                     PORTC           equ	7	;# 
   271     0008                     PORTD           equ	8	;# 
   272     0009                     PORTE           equ	9	;# 
   273     000A                     PCLATH          equ	10	;# 
   274     000B                     INTCON          equ	11	;# 
   275     000C                     PIR1            equ	12	;# 
   276     000D                     PIR2            equ	13	;# 
   277     000E                     TMR1            equ	14	;# 
   278     000E                     TMR1L           equ	14	;# 
   279     000F                     TMR1H           equ	15	;# 
   280     0010                     T1CON           equ	16	;# 
   281     0011                     TMR2            equ	17	;# 
   282     0012                     T2CON           equ	18	;# 
   283     0013                     SSPBUF          equ	19	;# 
   284     0014                     SSPCON          equ	20	;# 
   285     0015                     CCPR1           equ	21	;# 
   286     0015                     CCPR1L          equ	21	;# 
   287     0016                     CCPR1H          equ	22	;# 
   288     0017                     CCP1CON         equ	23	;# 
   289     0018                     RCSTA           equ	24	;# 
   290     0019                     TXREG           equ	25	;# 
   291     001A                     RCREG           equ	26	;# 
   292     001B                     CCPR2           equ	27	;# 
   293     001B                     CCPR2L          equ	27	;# 
   294     001C                     CCPR2H          equ	28	;# 
   295     001D                     CCP2CON         equ	29	;# 
   296     001E                     ADRESH          equ	30	;# 
   297     001F                     ADCON0          equ	31	;# 
   298     0081                     OPTION_REG      equ	129	;# 
   299     0085                     TRISA           equ	133	;# 
   300     0086                     TRISB           equ	134	;# 
   301     0087                     TRISC           equ	135	;# 
   302     0088                     TRISD           equ	136	;# 
   303     0089                     TRISE           equ	137	;# 
   304     008C                     PIE1            equ	140	;# 
   305     008D                     PIE2            equ	141	;# 
   306     008E                     PCON            equ	142	;# 
   307     0091                     SSPCON2         equ	145	;# 
   308     0092                     PR2             equ	146	;# 
   309     0093                     SSPADD          equ	147	;# 
   310     0094                     SSPSTAT         equ	148	;# 
   311     0098                     TXSTA           equ	152	;# 
   312     0099                     SPBRG           equ	153	;# 
   313     009C                     CMCON           equ	156	;# 
   314     009D                     CVRCON          equ	157	;# 
   315     009E                     ADRESL          equ	158	;# 
   316     009F                     ADCON1          equ	159	;# 
   317     010C                     EEDATA          equ	268	;# 
   318     010D                     EEADR           equ	269	;# 
   319     010E                     EEDATH          equ	270	;# 
   320     010F                     EEADRH          equ	271	;# 
   321     018C                     EECON1          equ	396	;# 
   322     018D                     EECON2          equ	397	;# 
   323                           
   324                           	psect	idataBANK0
   325     0273                     __pidataBANK0:
   326                           
   327                           ;initializer for _arrayMaskInputOfButton
   328     0273  3401               	retlw	1
   329     0274  3402               	retlw	2
   330     0275  3404               	retlw	4
   331     0276  3408               	retlw	8
   332     0277  3410               	retlw	16
   333     0278  3420               	retlw	32
   334     0279  3440               	retlw	64
   335     027A  3480               	retlw	128
   336                           
   337                           ;initializer for _arrayMaskInputOfKey
   338     027B  3401               	retlw	1
   339     027C  3402               	retlw	2
   340     027D  3404               	retlw	4
   341     027E  3408               	retlw	8
   342                           
   343                           ;initializer for _arrayMaskOutputOfKey
   344     027F  3410               	retlw	16
   345     0280  3420               	retlw	32
   346     0281  3440               	retlw	64
   347     0282  3480               	retlw	128
   348                           
   349                           	psect	idataBANK1
   350     0263                     __pidataBANK1:
   351                           
   352                           ;initializer for _arrayMapOfNumber
   353     0263  3407               	retlw	7
   354     0264  3408               	retlw	8
   355     0265  3409               	retlw	9
   356     0266  3441               	retlw	65
   357     0267  3404               	retlw	4
   358     0268  3405               	retlw	5
   359     0269  3406               	retlw	6
   360     026A  3442               	retlw	66
   361     026B  3401               	retlw	1
   362     026C  3402               	retlw	2
   363     026D  3403               	retlw	3
   364     026E  3443               	retlw	67
   365     026F  342A               	retlw	42
   366     0270  3400               	retlw	0
   367     0271  3423               	retlw	35
   368     0272  3444               	retlw	68
   369                           
   370                           	psect	strings
   371     0003                     __pstrings:
   372     0003                     stringtab:
   373     0003                     __stringtab:
   374     0003                     stringcode:	
   375                           ;	String table - string pointers are 1 byte each
   376                           
   377     0003                     stringdir:
   378     0003  3000               	movlw	high stringdir
   379     0004  008A               	movwf	10
   380     0005  0804               	movf	4,w
   381     0006  0A84               	incf	4,f
   382     0007  0782               	addwf	2,f
   383     0008                     __stringbase:
   384     0008  3400               	retlw	0
   385     0009                     __end_of__stringtab:
   386     0009                     _segCC:
   387     0009  343F               	retlw	63
   388     000A  3406               	retlw	6
   389     000B  345B               	retlw	91
   390     000C  344F               	retlw	79
   391     000D  3466               	retlw	102
   392     000E  346D               	retlw	109
   393     000F  347D               	retlw	125
   394     0010  3407               	retlw	7
   395     0011  347F               	retlw	127
   396     0012  346F               	retlw	111
   397     0013                     __end_of_segCC:
   398     0008                     _PORTD          set	8
   399     0028                     _RA0            set	40
   400     0029                     _RA1            set	41
   401     002A                     _RA2            set	42
   402     002B                     _RA3            set	43
   403     002D                     _RA5            set	45
   404     002C                     _RA4            set	44
   405     0048                     _RE0            set	72
   406     0088                     _TRISD          set	136
   407     0428                     _TRISA0         set	1064
   408     0429                     _TRISA1         set	1065
   409     042A                     _TRISA2         set	1066
   410     042B                     _TRISA3         set	1067
   411     042D                     _TRISA5         set	1069
   412     042C                     _TRISA4         set	1068
   413     0448                     _TRISE0         set	1096
   414     0013                     STR_1:
   415     0013  3457               	retlw	87	;'W'
   416     0014  3465               	retlw	101	;'e'
   417     0015  346C               	retlw	108	;'l'
   418     0016  3463               	retlw	99	;'c'
   419     0017  346F               	retlw	111	;'o'
   420     0018  346D               	retlw	109	;'m'
   421     0019  3465               	retlw	101	;'e'
   422     001A  3420               	retlw	32	;' '
   423     001B  3445               	retlw	69	;'E'
   424     001C  346D               	retlw	109	;'m'
   425     001D  3462               	retlw	98	;'b'
   426     001E  3465               	retlw	101	;'e'
   427     001F  3464               	retlw	100	;'d'
   428     0020  3464               	retlw	100	;'d'
   429     0021  3465               	retlw	101	;'e'
   430     0022  3464               	retlw	100	;'d'
   431     0023  3400               	retlw	0
   432     0024                     STR_2:
   433     0024  3425               	retlw	37	;'%'
   434     0025  3463               	retlw	99	;'c'
   435     0026  3420               	retlw	32	;' '
   436     0027  3400               	retlw	0
   437     0028                     STR_3:
   438     0028  3425               	retlw	37	;'%'
   439     0029  3464               	retlw	100	;'d'
   440     002A  3420               	retlw	32	;' '
   441     002B  3400               	retlw	0
   442                           
   443                           	psect	cinit
   444     07D1                     start_initialization:	
   445                           ; #config settings
   446                           
   447     07D1                     __initialization:
   448                           
   449                           ; Initialize objects allocated to BANK1
   450     07D1  1383               	bcf	3,7	;select IRP bank0
   451     07D2  30D0               	movlw	low (__pdataBANK1+16)
   452     07D3  00FD               	movwf	btemp+-1
   453     07D4  3002               	movlw	high __pidataBANK1
   454     07D5  00FE               	movwf	btemp
   455     07D6  3063               	movlw	low __pidataBANK1
   456     07D7  00FF               	movwf	btemp+1
   457     07D8  30C0               	movlw	low __pdataBANK1
   458     07D9  0084               	movwf	4
   459     07DA  120A  118A  22BB  120A  118A  	fcall	init_ram0
   460                           
   461                           ; Initialize objects allocated to BANK0
   462     07DF  306F               	movlw	low (__pdataBANK0+16)
   463     07E0  00FD               	movwf	btemp+-1
   464     07E1  3002               	movlw	high __pidataBANK0
   465     07E2  00FE               	movwf	btemp
   466     07E3  3073               	movlw	low __pidataBANK0
   467     07E4  00FF               	movwf	btemp+1
   468     07E5  305F               	movlw	low __pdataBANK0
   469     07E6  0084               	movwf	4
   470     07E7  120A  118A  22BB  120A  118A  	fcall	init_ram0
   471                           
   472                           ; Clear objects allocated to BANK1
   473     07EC  30A0               	movlw	low __pbssBANK1
   474     07ED  0084               	movwf	4
   475     07EE  30C0               	movlw	low (__pbssBANK1+32)
   476     07EF  120A  118A  2225  120A  118A  	fcall	clear_ram0
   477                           
   478                           ; Clear objects allocated to BANK0
   479     07F4  3020               	movlw	low __pbssBANK0
   480     07F5  0084               	movwf	4
   481     07F6  3046               	movlw	low (__pbssBANK0+38)
   482     07F7  120A  118A  2225  120A  118A  	fcall	clear_ram0
   483     07FC                     end_of_initialization:	
   484                           ;End of C runtime variable initialization code
   485                           
   486     07FC                     __end_of__initialization:
   487     07FC  0183               	clrf	3
   488     07FD  120A  118A  2C92   	ljmp	_main	;jump to C main() function
   489                           
   490                           	psect	bssBANK0
   491     0020                     __pbssBANK0:
   492     0020                     _key_code:
   493     0020                     	ds	32
   494     0040                     _width:
   495     0040                     	ds	2
   496     0042                     _prec:
   497     0042                     	ds	2
   498     0044                     _flags:
   499     0044                     	ds	1
   500     0045                     _numberValue:
   501     0045                     	ds	1
   502                           
   503                           	psect	dataBANK0
   504     005F                     __pdataBANK0:
   505     005F                     _arrayMaskInputOfButton:
   506     005F                     	ds	8
   507     0067                     _arrayMaskInputOfKey:
   508     0067                     	ds	4
   509     006B                     _arrayMaskOutputOfKey:
   510     006B                     	ds	4
   511                           
   512                           	psect	bssBANK1
   513     00A0                     __pbssBANK1:
   514     00A0                     _dbuf:
   515     00A0                     	ds	32
   516                           
   517                           	psect	dataBANK1
   518     00C0                     __pdataBANK1:
   519     00C0                     _arrayMapOfNumber:
   520     00C0                     	ds	16
   521                           
   522                           	psect	inittext
   523     02B7                     init_fetch0:	
   524                           ;	Called with low address in FSR and high address in W
   525                           
   526     02B7  087E               	movf	btemp,w
   527     02B8  008A               	movwf	10
   528     02B9  087F               	movf	btemp+1,w
   529     02BA  0082               	movwf	2
   530     02BB                     init_ram0:	
   531                           ;Called with:
   532                           ;	high address of idata address in btemp 
   533                           ;	low address of idata address in btemp+1 
   534                           ;	low address of data in FSR
   535                           ;	high address + 1 of data in btemp-1
   536                           
   537     02BB  120A  118A  22B7  120A  118A  	fcall	init_fetch0
   538     02C0  0080               	movwf	0
   539     02C1  0A84               	incf	4,f
   540     02C2  0804               	movf	4,w
   541     02C3  067D               	xorwf	btemp+-1,w
   542     02C4  1903               	btfsc	3,2
   543     02C5  3400               	retlw	0
   544     02C6  0AFF               	incf	btemp+1,f
   545     02C7  1903               	btfsc	3,2
   546     02C8  0AFE               	incf	btemp,f
   547     02C9  2ABB               	goto	init_ram0
   548                           
   549                           	psect	clrtext
   550     0225                     clear_ram0:	
   551                           ;	Called with FSR containing the base address, and
   552                           ;	W with the last address+1
   553                           
   554     0225  0064               	clrwdt	;clear the watchdog before getting into this loop
   555     0226                     clrloop0:
   556     0226  0180               	clrf	0	;clear RAM location pointed to by FSR
   557     0227  0A84               	incf	4,f	;increment pointer
   558     0228  0604               	xorwf	4,w	;XOR with final address
   559     0229  1903               	btfsc	3,2	;have we reached the end yet?
   560     022A  3400               	retlw	0	;all done for this memory range, return
   561     022B  0604               	xorwf	4,w	;XOR again to restore value
   562     022C  2A26               	goto	clrloop0	;do the next byte
   563                           
   564                           	psect	cstackCOMMON
   565     0070                     __pcstackCOMMON:
   566     0070                     ?_lcd_delay:
   567     0070                     ?_lcd_command:	
   568                           ; 1 bytes @ 0x0
   569                           
   570     0070                     ?_lcd_wait_busy:	
   571                           ; 1 bytes @ 0x0
   572                           
   573     0070                     ?_write_data:	
   574                           ; 1 bytes @ 0x0
   575                           
   576     0070                     ?_init_key_matrix:	
   577                           ; 1 bytes @ 0x0
   578                           
   579     0070                     ?_scan_key_matrix:	
   580                           ; 1 bytes @ 0x0
   581                           
   582     0070                     ?_lcd_init:	
   583                           ; 1 bytes @ 0x0
   584                           
   585     0070                     ?_lcd_putc:	
   586                           ; 1 bytes @ 0x0
   587                           
   588     0070                     ?_lcd_clear:	
   589                           ; 1 bytes @ 0x0
   590                           
   591     0070                     ?_putch:	
   592                           ; 1 bytes @ 0x0
   593                           
   594     0070                     ?_isButtonNumber:	
   595                           ; 1 bytes @ 0x0
   596                           
   597     0070                     ?_main:	
   598                           ; 1 bytes @ 0x0
   599                           
   600     0070                     ?___awdiv:	
   601                           ; 1 bytes @ 0x0
   602                           
   603     0070                     ?___awmod:	
   604                           ; 2 bytes @ 0x0
   605                           
   606     0070                     lcd_delay@time:	
   607                           ; 2 bytes @ 0x0
   608                           
   609     0070                     ___awdiv@divisor:	
   610                           ; 2 bytes @ 0x0
   611                           
   612     0070                     ___awmod@divisor:	
   613                           ; 2 bytes @ 0x0
   614                           
   615     0070                     ??_init_key_matrix:	
   616                           ; 2 bytes @ 0x0
   617                           
   618     0070                     ??_scan_key_matrix:	
   619                           ; 1 bytes @ 0x0
   620                           
   621     0070                     ??_isButtonNumber:	
   622                           ; 1 bytes @ 0x0
   623                           
   624                           
   625                           ; 1 bytes @ 0x0
   626     0070                     	ds	2
   627     0072                     lcd_wait_busy@busy:
   628     0072                     ___awdiv@dividend:	
   629                           ; 1 bytes @ 0x2
   630                           
   631     0072                     ___awmod@dividend:	
   632                           ; 2 bytes @ 0x2
   633                           
   634     0072                     ??_lcd_delay:	
   635                           ; 2 bytes @ 0x2
   636                           
   637     0072                     ??_lcd_wait_busy:	
   638                           ; 1 bytes @ 0x2
   639                           
   640     0072                     ??_write_data:	
   641                           ; 1 bytes @ 0x2
   642                           
   643                           
   644                           ; 1 bytes @ 0x2
   645     0072                     	ds	1
   646     0073                     write_data@_data:
   647     0073                     isButtonNumber@i:	
   648                           ; 1 bytes @ 0x3
   649                           
   650                           
   651                           ; 1 bytes @ 0x3
   652     0073                     	ds	1
   653     0074                     write_data@H_data:
   654     0074                     ___awdiv@counter:	
   655                           ; 1 bytes @ 0x4
   656                           
   657     0074                     ___awmod@counter:	
   658                           ; 1 bytes @ 0x4
   659                           
   660     0074                     ??___awdiv:	
   661                           ; 1 bytes @ 0x4
   662                           
   663     0074                     ??___awmod:	
   664                           ; 1 bytes @ 0x4
   665                           
   666                           
   667                           ; 1 bytes @ 0x4
   668     0074                     	ds	1
   669     0075                     write_data@L_data:
   670     0075                     ___awdiv@sign:	
   671                           ; 1 bytes @ 0x5
   672                           
   673     0075                     ___awmod@sign:	
   674                           ; 1 bytes @ 0x5
   675                           
   676                           
   677                           ; 1 bytes @ 0x5
   678     0075                     	ds	1
   679     0076                     ?_abs:
   680     0076                     lcd_putc@charactor:	
   681                           ; 2 bytes @ 0x6
   682                           
   683     0076                     lcd_command@_command:	
   684                           ; 1 bytes @ 0x6
   685                           
   686     0076                     ___awdiv@quotient:	
   687                           ; 1 bytes @ 0x6
   688                           
   689     0076                     abs@a:	
   690                           ; 2 bytes @ 0x6
   691                           
   692     0076                     ??_lcd_command:	
   693                           ; 2 bytes @ 0x6
   694                           
   695     0076                     ??_lcd_putc:	
   696                           ; 1 bytes @ 0x6
   697                           
   698     0076                     ??_lcd_clear:	
   699                           ; 1 bytes @ 0x6
   700                           
   701                           
   702                           ; 1 bytes @ 0x6
   703     0076                     	ds	1
   704     0077                     ?_lcd_puts:
   705     0077                     ?_lcd_gotoxy:	
   706                           ; 1 bytes @ 0x7
   707                           
   708     0077                     lcd_puts@string_char:	
   709                           ; 1 bytes @ 0x7
   710                           
   711     0077                     lcd_gotoxy@row:	
   712                           ; 1 bytes @ 0x7
   713                           
   714     0077                     putch@c:	
   715                           ; 1 bytes @ 0x7
   716                           
   717     0077                     ??_lcd_init:	
   718                           ; 1 bytes @ 0x7
   719                           
   720     0077                     ??_putch:	
   721                           ; 1 bytes @ 0x7
   722                           
   723                           
   724                           ; 1 bytes @ 0x7
   725     0077                     	ds	1
   726     0078                     ?_fputc:
   727     0078                     lcd_gotoxy@col:	
   728                           ; 2 bytes @ 0x8
   729                           
   730     0078                     fputc@c:	
   731                           ; 1 bytes @ 0x8
   732                           
   733     0078                     ??_abs:	
   734                           ; 2 bytes @ 0x8
   735                           
   736     0078                     ??_lcd_puts:	
   737                           ; 1 bytes @ 0x8
   738                           
   739     0078                     ??_lcd_gotoxy:	
   740                           ; 1 bytes @ 0x8
   741                           
   742                           
   743                           ; 1 bytes @ 0x8
   744     0078                     	ds	1
   745     0079                     lcd_gotoxy@address:
   746                           
   747                           ; 1 bytes @ 0x9
   748     0079                     	ds	1
   749     007A                     fputc@fp:
   750                           
   751                           ; 1 bytes @ 0xA
   752     007A                     	ds	1
   753     007B                     ?_vfpfcnvrt:
   754     007B                     vfpfcnvrt@fp:	
   755                           ; 1 bytes @ 0xB
   756                           
   757                           
   758                           ; 1 bytes @ 0xB
   759     007B                     	ds	1
   760     007C                     vfpfcnvrt@fmt:
   761                           
   762                           ; 1 bytes @ 0xC
   763     007C                     	ds	1
   764     007D                     vfpfcnvrt@ap:
   765                           
   766                           ; 1 bytes @ 0xD
   767     007D                     	ds	1
   768     007E                     ??_printf:
   769     007E                     ??_vfprintf:	
   770                           ; 1 bytes @ 0xE
   771                           
   772                           
   773                           	psect	cstackBANK0
   774     0046                     __pcstackBANK0:	
   775                           ; 1 bytes @ 0xE
   776                           
   777     0046                     scan_key_matrix@i:
   778     0046                     ??_fputc:	
   779                           ; 2 bytes @ 0x0
   780                           
   781                           
   782                           ; 1 bytes @ 0x0
   783     0046                     	ds	2
   784     0048                     scan_key_matrix@j:
   785                           
   786                           ; 2 bytes @ 0x2
   787     0048                     	ds	3
   788     004B                     ??_vfpfcnvrt:
   789                           
   790                           ; 1 bytes @ 0x5
   791     004B                     	ds	2
   792     004D                     vfpfcnvrt@done:
   793                           
   794                           ; 1 bytes @ 0x7
   795     004D                     	ds	1
   796     004E                     vfpfcnvrt@cp:
   797                           
   798                           ; 1 bytes @ 0x8
   799     004E                     	ds	1
   800     004F                     vfpfcnvrt@convarg:
   801                           
   802                           ; 4 bytes @ 0x9
   803     004F                     	ds	4
   804     0053                     vfpfcnvrt@c:
   805                           
   806                           ; 1 bytes @ 0xD
   807     0053                     	ds	1
   808     0054                     ?_vfprintf:
   809     0054                     vfprintf@fp:	
   810                           ; 2 bytes @ 0xE
   811                           
   812                           
   813                           ; 1 bytes @ 0xE
   814     0054                     	ds	1
   815     0055                     vfprintf@fmt:
   816                           
   817                           ; 1 bytes @ 0xF
   818     0055                     	ds	1
   819     0056                     vfprintf@ap:
   820                           
   821                           ; 1 bytes @ 0x10
   822     0056                     	ds	1
   823     0057                     vfprintf@cfmt:
   824                           
   825                           ; 1 bytes @ 0x11
   826     0057                     	ds	1
   827     0058                     ?_printf:
   828     0058                     printf@fmt:	
   829                           ; 2 bytes @ 0x12
   830                           
   831                           
   832                           ; 1 bytes @ 0x12
   833     0058                     	ds	3
   834     005B                     printf@ap:
   835                           
   836                           ; 1 bytes @ 0x15
   837     005B                     	ds	1
   838     005C                     ??_main:
   839                           
   840                           ; 1 bytes @ 0x16
   841     005C                     	ds	3
   842                           
   843                           	psect	maintext
   844     0492                     __pmaintext:	
   845 ;;
   846 ;;Main: autosize = 0, tempsize = 3, incstack = 0, save=0
   847 ;;
   848 ;; *************** function _main *****************
   849 ;; Defined at:
   850 ;;		line 43 in file "../Bai_1_GPIO.X/main.c"
   851 ;; Parameters:    Size  Location     Type
   852 ;;		None
   853 ;; Auto vars:     Size  Location     Type
   854 ;;		None
   855 ;; Return value:  Size  Location     Type
   856 ;;                  1    wreg      void 
   857 ;; Registers used:
   858 ;;		wreg, fsr0l, fsr0h, status,2, status,0, pclath, btemp1, cstack
   859 ;; Tracked objects:
   860 ;;		On entry : B00/0
   861 ;;		On exit  : 0/0
   862 ;;		Unchanged: 0/0
   863 ;; Data sizes:     COMMON   BANK0   BANK1   BANK3   BANK2
   864 ;;      Params:         0       0       0       0       0
   865 ;;      Locals:         0       0       0       0       0
   866 ;;      Temps:          0       3       0       0       0
   867 ;;      Totals:         0       3       0       0       0
   868 ;;Total ram usage:        3 bytes
   869 ;; Hardware stack levels required when called: 6
   870 ;; This function calls:
   871 ;;		_init_key_matrix
   872 ;;		_isButtonNumber
   873 ;;		_lcd_clear
   874 ;;		_lcd_gotoxy
   875 ;;		_lcd_init
   876 ;;		_lcd_puts
   877 ;;		_printf
   878 ;;		_scan_key_matrix
   879 ;; This function is called by:
   880 ;;		Startup code after reset
   881 ;; This function uses a non-reentrant model
   882 ;;
   883                           
   884     0492                     _main:	
   885                           ;psect for function _main
   886                           
   887     0492                     l1661:	
   888                           ;incstack = 0
   889                           ; Regs used in _main: [wreg-fsr0h+status,2+status,0+pclath+btemp1+cstack]
   890                           
   891                           
   892                           ;../Bai_1_GPIO.X/main.c: 44:     init_key_matrix();
   893     0492  120A  118A  222D  120A  118A  	fcall	_init_key_matrix
   894     0497                     l1663:
   895                           
   896                           ;../Bai_1_GPIO.X/main.c: 45:     lcd_init();
   897     0497  120A  118A  24FA  120A  118A  	fcall	_lcd_init
   898     049C                     l1665:
   899                           
   900                           ;../Bai_1_GPIO.X/main.c: 46:     lcd_gotoxy(0, 0);
   901     049C  01F7               	clrf	lcd_gotoxy@row
   902     049D  3000               	movlw	0
   903     049E  120A  118A  2329  120A  118A  	fcall	_lcd_gotoxy
   904     04A3                     l1667:
   905                           
   906                           ;../Bai_1_GPIO.X/main.c: 47:     lcd_puts("Welcome Embedded");
   907     04A3  300B               	movlw	(low ((STR_1-__stringbase)| (0+32768)))& (0+255)
   908     04A4  00F7               	movwf	lcd_puts@string_char
   909     04A5  120A  118A  22CA  120A  118A  	fcall	_lcd_puts
   910                           
   911                           ;../Bai_1_GPIO.X/main.c: 48:     _delay((unsigned long)((1000)*(4000000/4000.0)));
   912     04AA  3006               	movlw	6
   913     04AB  1283               	bcf	3,5	;RP0=0, select bank0
   914     04AC  1303               	bcf	3,6	;RP1=0, select bank0
   915     04AD  00DE               	movwf	??_main+2
   916     04AE  3013               	movlw	19
   917     04AF  00DD               	movwf	??_main+1
   918     04B0  30AD               	movlw	173
   919     04B1  00DC               	movwf	??_main
   920     04B2                     u1617:
   921     04B2  0BDC               	decfsz	??_main,f
   922     04B3  2CB2               	goto	u1617
   923     04B4  0BDD               	decfsz	??_main+1,f
   924     04B5  2CB2               	goto	u1617
   925     04B6  0BDE               	decfsz	??_main+2,f
   926     04B7  2CB2               	goto	u1617
   927     04B8                     l1669:
   928                           
   929                           ;../Bai_1_GPIO.X/main.c: 49:     lcd_clear();
   930     04B8  120A  118A  2253  120A  118A  	fcall	_lcd_clear
   931     04BD                     l1671:
   932                           
   933                           ;../Bai_1_GPIO.X/main.c: 52:         scan_key_matrix();
   934     04BD  120A  118A  2577  120A  118A  	fcall	_scan_key_matrix
   935     04C2                     l1673:
   936                           
   937                           ;../Bai_1_GPIO.X/main.c: 53:         isButtonNumber();
   938     04C2  120A  118A  2306  120A  118A  	fcall	_isButtonNumber
   939     04C7                     l1675:
   940                           
   941                           ;../Bai_1_GPIO.X/main.c: 54:         lcd_gotoxy(0, 0);
   942     04C7  01F7               	clrf	lcd_gotoxy@row
   943     04C8  3000               	movlw	0
   944     04C9  120A  118A  2329  120A  118A  	fcall	_lcd_gotoxy
   945     04CE                     l1677:
   946                           
   947                           ;../Bai_1_GPIO.X/main.c: 55:         if ((((unsigned char)((numberValue)-0x20)) < 0x5f))
   948     04CE  30E0               	movlw	224
   949     04CF  1283               	bcf	3,5	;RP0=0, select bank0
   950     04D0  1303               	bcf	3,6	;RP1=0, select bank0
   951     04D1  0745               	addwf	_numberValue,w
   952     04D2  00DC               	movwf	??_main
   953     04D3  305F               	movlw	95
   954     04D4  025C               	subwf	??_main,w
   955     04D5  1803               	skipnc
   956     04D6  2CD8               	goto	u1601
   957     04D7  2CD9               	goto	u1600
   958     04D8                     u1601:
   959     04D8  2CE8               	goto	l1681
   960     04D9                     u1600:
   961     04D9                     l1679:
   962                           
   963                           ;../Bai_1_GPIO.X/main.c: 56:             printf("%c ", numberValue);
   964     04D9  301C               	movlw	(low ((STR_2-__stringbase)| (0+32768)))& (0+255)
   965     04DA  00D8               	movwf	printf@fmt
   966     04DB  0845               	movf	_numberValue,w
   967     04DC  00DC               	movwf	??_main
   968     04DD  01DD               	clrf	??_main+1
   969     04DE  085C               	movf	??_main,w
   970     04DF  00D9               	movwf	?_printf+1
   971     04E0  085D               	movf	??_main+1,w
   972     04E1  00DA               	movwf	?_printf+2
   973     04E2  120A  118A  2244  120A  118A  	fcall	_printf
   974     04E7  2CBD               	goto	l1671
   975     04E8                     l1681:
   976                           
   977                           ;../Bai_1_GPIO.X/main.c: 58:             printf("%d ", numberValue);
   978     04E8  3020               	movlw	(low ((STR_3-__stringbase)| (0+32768)))& (0+255)
   979     04E9  00D8               	movwf	printf@fmt
   980     04EA  0845               	movf	_numberValue,w
   981     04EB  00DC               	movwf	??_main
   982     04EC  01DD               	clrf	??_main+1
   983     04ED  085C               	movf	??_main,w
   984     04EE  00D9               	movwf	?_printf+1
   985     04EF  085D               	movf	??_main+1,w
   986     04F0  00DA               	movwf	?_printf+2
   987     04F1  120A  118A  2244  120A  118A  	fcall	_printf
   988     04F6  2CBD               	goto	l1671
   989     04F7  120A  118A  2800   	ljmp	start
   990     04FA                     __end_of_main:
   991                           
   992                           	psect	text1
   993     0577                     __ptext1:	
   994 ;; *************** function _scan_key_matrix *****************
   995 ;; Defined at:
   996 ;;		line 18 in file "../Bai_1_GPIO.X/button.c"
   997 ;; Parameters:    Size  Location     Type
   998 ;;		None
   999 ;; Auto vars:     Size  Location     Type
  1000 ;;  j               2    2[BANK0 ] int 
  1001 ;;  i               2    0[BANK0 ] int 
  1002 ;; Return value:  Size  Location     Type
  1003 ;;                  1    wreg      void 
  1004 ;; Registers used:
  1005 ;;		wreg, fsr0l, fsr0h, status,2, status,0, btemp1
  1006 ;; Tracked objects:
  1007 ;;		On entry : 0/0
  1008 ;;		On exit  : 0/0
  1009 ;;		Unchanged: 0/0
  1010 ;; Data sizes:     COMMON   BANK0   BANK1   BANK3   BANK2
  1011 ;;      Params:         0       0       0       0       0
  1012 ;;      Locals:         0       4       0       0       0
  1013 ;;      Temps:         12       0       0       0       0
  1014 ;;      Totals:        12       4       0       0       0
  1015 ;;Total ram usage:       16 bytes
  1016 ;; Hardware stack levels used: 1
  1017 ;; This function calls:
  1018 ;;		Nothing
  1019 ;; This function is called by:
  1020 ;;		_main
  1021 ;; This function uses a non-reentrant model
  1022 ;;
  1023                           
  1024     0577                     _scan_key_matrix:	
  1025                           ;psect for function _scan_key_matrix
  1026                           
  1027     0577                     l1523:	
  1028                           ;incstack = 0
  1029                           ; Regs used in _scan_key_matrix: [wreg-fsr0h+status,2+status,0+btemp1]
  1030                           
  1031                           
  1032                           ;../Bai_1_GPIO.X/button.c: 20:  int i,j;;../Bai_1_GPIO.X/button.c: 21:  for(i=0;i<4;i++)
  1033     0577  1283               	bcf	3,5	;RP0=0, select bank0
  1034     0578  1303               	bcf	3,6	;RP1=0, select bank0
  1035     0579  01C6               	clrf	scan_key_matrix@i
  1036     057A  01C7               	clrf	scan_key_matrix@i+1
  1037     057B                     l1529:
  1038                           
  1039                           ;../Bai_1_GPIO.X/button.c: 22:  {;../Bai_1_GPIO.X/button.c: 23:   PORTD = ~arrayMaskOutp
      +                          utOfKey[i];
  1040     057B  1283               	bcf	3,5	;RP0=0, select bank0
  1041     057C  1303               	bcf	3,6	;RP1=0, select bank0
  1042     057D  0846               	movf	scan_key_matrix@i,w
  1043     057E  3E6B               	addlw	(low (_arrayMaskOutputOfKey| 0))& (0+255)
  1044     057F  0084               	movwf	4
  1045     0580  1383               	bcf	3,7	;select IRP bank0
  1046     0581  0900               	comf	0,w
  1047     0582  0088               	movwf	8	;volatile
  1048     0583                     l1531:
  1049                           
  1050                           ;../Bai_1_GPIO.X/button.c: 24:   for(j=0;j<4;j++)
  1051     0583  01C8               	clrf	scan_key_matrix@j
  1052     0584  01C9               	clrf	scan_key_matrix@j+1
  1053     0585                     l1537:
  1054                           
  1055                           ;../Bai_1_GPIO.X/button.c: 25:   {;../Bai_1_GPIO.X/button.c: 26:    if((PORTD & arrayMas
      +                          kInputOfKey[j]) == 0)
  1056     0585  1283               	bcf	3,5	;RP0=0, select bank0
  1057     0586  1303               	bcf	3,6	;RP1=0, select bank0
  1058     0587  0848               	movf	scan_key_matrix@j,w
  1059     0588  3E67               	addlw	(low (_arrayMaskInputOfKey| 0))& (0+255)
  1060     0589  0084               	movwf	4
  1061     058A  1383               	bcf	3,7	;select IRP bank0
  1062     058B  0800               	movf	0,w
  1063     058C  0508               	andwf	8,w	;volatile
  1064     058D  1D03               	btfss	3,2
  1065     058E  2D90               	goto	u1451
  1066     058F  2D91               	goto	u1450
  1067     0590                     u1451:
  1068     0590  2DC8               	goto	l1541
  1069     0591                     u1450:
  1070     0591                     l1539:
  1071                           
  1072                           ;../Bai_1_GPIO.X/button.c: 27:     key_code[i*4 +j] = key_code[i*4 +j] + 1;
  1073     0591  0846               	movf	scan_key_matrix@i,w
  1074     0592  00F0               	movwf	??_scan_key_matrix
  1075     0593  3003               	movlw	3
  1076     0594                     u1465:
  1077     0594  1003               	clrc
  1078     0595  0DF0               	rlf	??_scan_key_matrix,f
  1079     0596  3EFF               	addlw	-1
  1080     0597  1D03               	skipz
  1081     0598  2D94               	goto	u1465
  1082     0599  3020               	movlw	(low (_key_code| 0))& (0+255)
  1083     059A  0770               	addwf	??_scan_key_matrix,w
  1084     059B  00F1               	movwf	??_scan_key_matrix+1
  1085     059C  0848               	movf	scan_key_matrix@j,w
  1086     059D  00F2               	movwf	??_scan_key_matrix+2
  1087     059E  0772               	addwf	??_scan_key_matrix+2,w
  1088     059F  0771               	addwf	??_scan_key_matrix+1,w
  1089     05A0  00F3               	movwf	??_scan_key_matrix+3
  1090     05A1  0873               	movf	??_scan_key_matrix+3,w
  1091     05A2  0084               	movwf	4
  1092     05A3  0800               	movf	0,w
  1093     05A4  00F4               	movwf	??_scan_key_matrix+4
  1094     05A5  0A84               	incf	4,f
  1095     05A6  0800               	movf	0,w
  1096     05A7  00F5               	movwf	??_scan_key_matrix+5
  1097     05A8  0874               	movf	??_scan_key_matrix+4,w
  1098     05A9  3E01               	addlw	1
  1099     05AA  00F6               	movwf	??_scan_key_matrix+6
  1100     05AB  0875               	movf	??_scan_key_matrix+5,w
  1101     05AC  1803               	skipnc
  1102     05AD  3E01               	addlw	1
  1103     05AE  3E00               	addlw	0
  1104     05AF  00F7               	movwf	??_scan_key_matrix+7
  1105     05B0  0846               	movf	scan_key_matrix@i,w
  1106     05B1  00F8               	movwf	??_scan_key_matrix+8
  1107     05B2  3003               	movlw	3
  1108     05B3                     u1475:
  1109     05B3  1003               	clrc
  1110     05B4  0DF8               	rlf	??_scan_key_matrix+8,f
  1111     05B5  3EFF               	addlw	-1
  1112     05B6  1D03               	skipz
  1113     05B7  2DB3               	goto	u1475
  1114     05B8  3020               	movlw	(low (_key_code| 0))& (0+255)
  1115     05B9  0778               	addwf	??_scan_key_matrix+8,w
  1116     05BA  00F9               	movwf	??_scan_key_matrix+9
  1117     05BB  0848               	movf	scan_key_matrix@j,w
  1118     05BC  00FA               	movwf	??_scan_key_matrix+10
  1119     05BD  077A               	addwf	??_scan_key_matrix+10,w
  1120     05BE  0779               	addwf	??_scan_key_matrix+9,w
  1121     05BF  00FB               	movwf	??_scan_key_matrix+11
  1122     05C0  087B               	movf	??_scan_key_matrix+11,w
  1123     05C1  0084               	movwf	4
  1124     05C2  0876               	movf	??_scan_key_matrix+6,w
  1125     05C3  0080               	movwf	0
  1126     05C4  0A84               	incf	4,f
  1127     05C5  0877               	movf	??_scan_key_matrix+7,w
  1128     05C6  0080               	movwf	0
  1129     05C7  2DDD               	goto	l1543
  1130     05C8                     l1541:
  1131                           
  1132                           ;../Bai_1_GPIO.X/button.c: 29:     key_code[i*4 +j] = 0;
  1133     05C8  0846               	movf	scan_key_matrix@i,w
  1134     05C9  00F0               	movwf	??_scan_key_matrix
  1135     05CA  3003               	movlw	3
  1136     05CB                     u1485:
  1137     05CB  1003               	clrc
  1138     05CC  0DF0               	rlf	??_scan_key_matrix,f
  1139     05CD  3EFF               	addlw	-1
  1140     05CE  1D03               	skipz
  1141     05CF  2DCB               	goto	u1485
  1142     05D0  3020               	movlw	(low (_key_code| 0))& (0+255)
  1143     05D1  0770               	addwf	??_scan_key_matrix,w
  1144     05D2  00F1               	movwf	??_scan_key_matrix+1
  1145     05D3  0848               	movf	scan_key_matrix@j,w
  1146     05D4  00F2               	movwf	??_scan_key_matrix+2
  1147     05D5  0772               	addwf	??_scan_key_matrix+2,w
  1148     05D6  0771               	addwf	??_scan_key_matrix+1,w
  1149     05D7  00F3               	movwf	??_scan_key_matrix+3
  1150     05D8  0873               	movf	??_scan_key_matrix+3,w
  1151     05D9  0084               	movwf	4
  1152     05DA  0180               	clrf	0
  1153     05DB  0A84               	incf	4,f
  1154     05DC  0180               	clrf	0
  1155     05DD                     l1543:
  1156                           
  1157                           ;../Bai_1_GPIO.X/button.c: 30:   }
  1158     05DD  3001               	movlw	1
  1159     05DE  07C8               	addwf	scan_key_matrix@j,f
  1160     05DF  1803               	skipnc
  1161     05E0  0AC9               	incf	scan_key_matrix@j+1,f
  1162     05E1  3000               	movlw	0
  1163     05E2  07C9               	addwf	scan_key_matrix@j+1,f
  1164     05E3                     l1545:
  1165     05E3  0849               	movf	scan_key_matrix@j+1,w
  1166     05E4  3A80               	xorlw	128
  1167     05E5  00FF               	movwf	btemp1
  1168     05E6  3080               	movlw	128
  1169     05E7  027F               	subwf	btemp1,w
  1170     05E8  1D03               	skipz
  1171     05E9  2DEC               	goto	u1495
  1172     05EA  3004               	movlw	4
  1173     05EB  0248               	subwf	scan_key_matrix@j,w
  1174     05EC                     u1495:
  1175     05EC  1C03               	skipc
  1176     05ED  2DEF               	goto	u1491
  1177     05EE  2DF0               	goto	u1490
  1178     05EF                     u1491:
  1179     05EF  2D85               	goto	l1537
  1180     05F0                     u1490:
  1181     05F0                     l1547:
  1182                           
  1183                           ;../Bai_1_GPIO.X/button.c: 31:  }
  1184     05F0  3001               	movlw	1
  1185     05F1  1283               	bcf	3,5	;RP0=0, select bank0
  1186     05F2  1303               	bcf	3,6	;RP1=0, select bank0
  1187     05F3  07C6               	addwf	scan_key_matrix@i,f
  1188     05F4  1803               	skipnc
  1189     05F5  0AC7               	incf	scan_key_matrix@i+1,f
  1190     05F6  3000               	movlw	0
  1191     05F7  07C7               	addwf	scan_key_matrix@i+1,f
  1192     05F8                     l1549:
  1193     05F8  0847               	movf	scan_key_matrix@i+1,w
  1194     05F9  3A80               	xorlw	128
  1195     05FA  00FF               	movwf	btemp1
  1196     05FB  3080               	movlw	128
  1197     05FC  027F               	subwf	btemp1,w
  1198     05FD  1D03               	skipz
  1199     05FE  2E01               	goto	u1505
  1200     05FF  3004               	movlw	4
  1201     0600  0246               	subwf	scan_key_matrix@i,w
  1202     0601                     u1505:
  1203     0601  1C03               	skipc
  1204     0602  2E04               	goto	u1501
  1205     0603  2E05               	goto	u1500
  1206     0604                     u1501:
  1207     0604  2D7B               	goto	l1529
  1208     0605                     u1500:
  1209     0605                     l24:
  1210     0605  0008               	return
  1211     0606                     __end_of_scan_key_matrix:
  1212                           
  1213                           	psect	text2
  1214     0244                     __ptext2:	
  1215 ;; *************** function _printf *****************
  1216 ;; Defined at:
  1217 ;;		line 5 in file "C:\Program Files\Microchip\xc8\v3.10\pic\sources\c99\common\printf.c"
  1218 ;; Parameters:    Size  Location     Type
  1219 ;;  fmt             1   18[BANK0 ] PTR const unsigned char 
  1220 ;;		 -> STR_3(4), STR_2(4), 
  1221 ;; Auto vars:     Size  Location     Type
  1222 ;;  ret             2    0        int 
  1223 ;;  ap              1   21[BANK0 ] PTR void [1]
  1224 ;;		 -> ?_printf(2), 
  1225 ;; Return value:  Size  Location     Type
  1226 ;;                  2   18[BANK0 ] int 
  1227 ;; Registers used:
  1228 ;;		wreg, fsr0l, fsr0h, status,2, status,0, pclath, cstack
  1229 ;; Tracked objects:
  1230 ;;		On entry : 0/0
  1231 ;;		On exit  : 0/0
  1232 ;;		Unchanged: 0/0
  1233 ;; Data sizes:     COMMON   BANK0   BANK1   BANK3   BANK2
  1234 ;;      Params:         0       3       0       0       0
  1235 ;;      Locals:         0       1       0       0       0
  1236 ;;      Temps:          0       0       0       0       0
  1237 ;;      Totals:         0       4       0       0       0
  1238 ;;Total ram usage:        4 bytes
  1239 ;; Hardware stack levels used: 1
  1240 ;; Hardware stack levels required when called: 5
  1241 ;; This function calls:
  1242 ;;		_vfprintf
  1243 ;; This function is called by:
  1244 ;;		_main
  1245 ;; This function uses a non-reentrant model
  1246 ;;
  1247                           
  1248     0244                     _printf:	
  1249                           ;psect for function _printf
  1250                           
  1251     0244                     l1597:	
  1252                           ;incstack = 0
  1253                           ; Regs used in _printf: [wreg-fsr0h+status,2+status,0+pclath+cstack]
  1254                           
  1255     0244  3059               	movlw	(low ((?_printf| 0+1)))& (0+255)
  1256     0245  1283               	bcf	3,5	;RP0=0, select bank0
  1257     0246  1303               	bcf	3,6	;RP1=0, select bank0
  1258     0247  00DB               	movwf	printf@ap
  1259     0248                     l1599:
  1260     0248  01D4               	clrf	vfprintf@fp
  1261     0249  0858               	movf	printf@fmt,w
  1262     024A  00D5               	movwf	vfprintf@fmt
  1263     024B  305B               	movlw	(low (printf@ap| 0))& (0+255)
  1264     024C  00D6               	movwf	vfprintf@ap
  1265     024D  120A  118A  22E5  120A  118A  	fcall	_vfprintf
  1266     0252                     l731:
  1267     0252  0008               	return
  1268     0253                     __end_of_printf:
  1269                           
  1270                           	psect	text3
  1271     02E5                     __ptext3:	
  1272 ;; *************** function _vfprintf *****************
  1273 ;; Defined at:
  1274 ;;		line 1817 in file "C:\Program Files\Microchip\xc8\v3.10\pic\sources\c99\common\doprnt.c"
  1275 ;; Parameters:    Size  Location     Type
  1276 ;;  fp              1   14[BANK0 ] PTR struct _IO_FILE
  1277 ;;		 -> NULL(0), 
  1278 ;;  fmt             1   15[BANK0 ] PTR const unsigned char 
  1279 ;;		 -> STR_3(4), STR_2(4), 
  1280 ;;  ap              1   16[BANK0 ] PTR PTR void 
  1281 ;;		 -> printf@ap(1), 
  1282 ;; Auto vars:     Size  Location     Type
  1283 ;;  cfmt            1   17[BANK0 ] PTR unsigned char 
  1284 ;;		 -> STR_3(4), STR_2(4), 
  1285 ;; Return value:  Size  Location     Type
  1286 ;;                  2   14[BANK0 ] int 
  1287 ;; Registers used:
  1288 ;;		wreg, fsr0l, fsr0h, status,2, status,0, pclath, cstack
  1289 ;; Tracked objects:
  1290 ;;		On entry : 0/0
  1291 ;;		On exit  : 0/0
  1292 ;;		Unchanged: 0/0
  1293 ;; Data sizes:     COMMON   BANK0   BANK1   BANK3   BANK2
  1294 ;;      Params:         0       3       0       0       0
  1295 ;;      Locals:         0       1       0       0       0
  1296 ;;      Temps:          0       0       0       0       0
  1297 ;;      Totals:         0       4       0       0       0
  1298 ;;Total ram usage:        4 bytes
  1299 ;; Hardware stack levels used: 1
  1300 ;; Hardware stack levels required when called: 4
  1301 ;; This function calls:
  1302 ;;		_vfpfcnvrt
  1303 ;; This function is called by:
  1304 ;;		_printf
  1305 ;; This function uses a non-reentrant model
  1306 ;;
  1307                           
  1308     02E5                     _vfprintf:	
  1309                           ;psect for function _vfprintf
  1310                           
  1311     02E5                     l1511:	
  1312                           ;incstack = 0
  1313                           ; Regs used in _vfprintf: [wreg-fsr0h+status,2+status,0+pclath+cstack]
  1314                           
  1315                           
  1316                           ;C:\Program Files\Microchip\xc8\v3.10\pic\sources\c99\common\doprnt.c: 1817: int vfprint
      +                          f(FILE *fp, const char *fmt, va_list ap);C:\Program Files\Microchip\xc8\v3.10\pic\source
      +                          s\c99\common\doprnt.c: 1818: {;C:\Program Files\Microchip\xc8\v3.10\pic\sources\c99\comm
      +                          on\doprnt.c: 1820:     char *cfmt;;C:\Program Files\Microchip\xc8\v3.10\pic\sources\c99\
      +                          common\doprnt.c: 1822:     cfmt = (char *)fmt;
  1317     02E5  1283               	bcf	3,5	;RP0=0, select bank0
  1318     02E6  1303               	bcf	3,6	;RP1=0, select bank0
  1319     02E7  0855               	movf	vfprintf@fmt,w
  1320     02E8  00D7               	movwf	vfprintf@cfmt
  1321                           
  1322                           ;C:\Program Files\Microchip\xc8\v3.10\pic\sources\c99\common\doprnt.c: 1826:     while (
      +                          *cfmt) {
  1323     02E9  2AF5               	goto	l1515
  1324     02EA                     l1513:
  1325                           
  1326                           ;C:\Program Files\Microchip\xc8\v3.10\pic\sources\c99\common\doprnt.c: 1830:    vfpfcnvr
      +                          t(fp, &cfmt, ap);
  1327     02EA  0854               	movf	vfprintf@fp,w
  1328     02EB  00FB               	movwf	vfpfcnvrt@fp
  1329     02EC  3057               	movlw	(low (vfprintf@cfmt| 0))& (0+255)
  1330     02ED  00FC               	movwf	vfpfcnvrt@fmt
  1331     02EE  0856               	movf	vfprintf@ap,w
  1332     02EF  00FD               	movwf	vfpfcnvrt@ap
  1333     02F0  120A  118A  26C3  120A  118A  	fcall	_vfpfcnvrt
  1334     02F5                     l1515:
  1335                           
  1336                           ;C:\Program Files\Microchip\xc8\v3.10\pic\sources\c99\common\doprnt.c: 1826:     while (
      +                          *cfmt) {
  1337     02F5  1283               	bcf	3,5	;RP0=0, select bank0
  1338     02F6  1303               	bcf	3,6	;RP1=0, select bank0
  1339     02F7  0857               	movf	vfprintf@cfmt,w
  1340     02F8  0084               	movwf	4
  1341     02F9  120A  118A  2003  120A  118A  	fcall	stringdir
  1342     02FE  3A00               	xorlw	0
  1343     02FF  1D03               	skipz
  1344     0300  2B02               	goto	u1441
  1345     0301  2B03               	goto	u1440
  1346     0302                     u1441:
  1347     0302  2AEA               	goto	l1513
  1348     0303                     u1440:
  1349     0303                     l1517:
  1350                           
  1351                           ;C:\Program Files\Microchip\xc8\v3.10\pic\sources\c99\common\doprnt.c: 1835:  return 0;
  1352     0303  01D4               	clrf	?_vfprintf
  1353     0304  01D5               	clrf	?_vfprintf+1
  1354     0305                     l776:
  1355     0305  0008               	return
  1356     0306                     __end_of_vfprintf:
  1357                           
  1358                           	psect	text4
  1359     06C3                     __ptext4:	
  1360 ;; *************** function _vfpfcnvrt *****************
  1361 ;; Defined at:
  1362 ;;		line 1177 in file "C:\Program Files\Microchip\xc8\v3.10\pic\sources\c99\common\doprnt.c"
  1363 ;; Parameters:    Size  Location     Type
  1364 ;;  fp              1   11[COMMON] PTR struct _IO_FILE
  1365 ;;		 -> NULL(0), 
  1366 ;;  fmt             1   12[COMMON] PTR PTR unsigned char 
  1367 ;;		 -> vfprintf@cfmt(1), 
  1368 ;;  ap              1   13[COMMON] PTR PTR void 
  1369 ;;		 -> printf@ap(1), 
  1370 ;; Auto vars:     Size  Location     Type
  1371 ;;  convarg         4    9[BANK0 ] struct .
  1372 ;;  c               1   13[BANK0 ] unsigned char 
  1373 ;;  cp              1    8[BANK0 ] PTR unsigned char 
  1374 ;;		 -> STR_3(4), STR_2(4), 
  1375 ;;  done            1    7[BANK0 ] _Bool 
  1376 ;; Return value:  Size  Location     Type
  1377 ;;                  1    wreg      void 
  1378 ;; Registers used:
  1379 ;;		wreg, fsr0l, fsr0h, status,2, status,0, pclath, cstack
  1380 ;; Tracked objects:
  1381 ;;		On entry : 0/0
  1382 ;;		On exit  : 0/0
  1383 ;;		Unchanged: 0/0
  1384 ;; Data sizes:     COMMON   BANK0   BANK1   BANK3   BANK2
  1385 ;;      Params:         3       0       0       0       0
  1386 ;;      Locals:         0       7       0       0       0
  1387 ;;      Temps:          0       2       0       0       0
  1388 ;;      Totals:         3       9       0       0       0
  1389 ;;Total ram usage:       12 bytes
  1390 ;; Hardware stack levels used: 1
  1391 ;; Hardware stack levels required when called: 3
  1392 ;; This function calls:
  1393 ;;		___awdiv
  1394 ;;		___awmod
  1395 ;;		_abs
  1396 ;;		_fputc
  1397 ;; This function is called by:
  1398 ;;		_vfprintf
  1399 ;; This function uses a non-reentrant model
  1400 ;;
  1401                           
  1402     06C3                     _vfpfcnvrt:	
  1403                           ;psect for function _vfpfcnvrt
  1404                           
  1405     06C3                     l1447:	
  1406                           ;incstack = 0
  1407                           ; Regs used in _vfpfcnvrt: [wreg-fsr0h+status,2+status,0+pclath+cstack]
  1408                           
  1409                           
  1410                           ;C:\Program Files\Microchip\xc8\v3.10\pic\sources\c99\common\doprnt.c: 1177: vfpfcnvrt(F
      +                          ILE *fp, char *fmt[], va_list ap);C:\Program Files\Microchip\xc8\v3.10\pic\sources\c99\c
      +                          ommon\doprnt.c: 1178: {;C:\Program Files\Microchip\xc8\v3.10\pic\sources\c99\common\dopr
      +                          nt.c: 1179:     char c, *cp;;C:\Program Files\Microchip\xc8\v3.10\pic\sources\c99\common
      +                          \doprnt.c: 1180:     _Bool done;;C:\Program Files\Microchip\xc8\v3.10\pic\sources\c99\co
      +                          mmon\doprnt.c: 1188:  } convarg;;C:\Program Files\Microchip\xc8\v3.10\pic\sources\c99\co
      +                          mmon\doprnt.c: 1201:     if ((*fmt)[0] == '%') {
  1411     06C3  087C               	movf	vfpfcnvrt@fmt,w
  1412     06C4  0084               	movwf	4
  1413     06C5  1383               	bcf	3,7	;select IRP bank0
  1414     06C6  0800               	movf	0,w
  1415     06C7  0084               	movwf	4
  1416     06C8  120A  118A  2003  120A  118A  	fcall	stringdir
  1417     06CD  3A25               	xorlw	37
  1418     06CE  1D03               	skipz
  1419     06CF  2ED1               	goto	u1331
  1420     06D0  2ED2               	goto	u1330
  1421     06D1                     u1331:
  1422     06D1  2FB7               	goto	l1499
  1423     06D2                     u1330:
  1424     06D2                     l1449:
  1425                           
  1426                           ;C:\Program Files\Microchip\xc8\v3.10\pic\sources\c99\common\doprnt.c: 1202:         ++*
      +                          fmt;
  1427     06D2  087C               	movf	vfpfcnvrt@fmt,w
  1428     06D3  0084               	movwf	4
  1429     06D4  3001               	movlw	1
  1430     06D5  0780               	addwf	0,f
  1431     06D6                     l1451:
  1432                           
  1433                           ;C:\Program Files\Microchip\xc8\v3.10\pic\sources\c99\common\doprnt.c: 1204:         fla
      +                          gs = width = 0;
  1434     06D6  1283               	bcf	3,5	;RP0=0, select bank0
  1435     06D7  1303               	bcf	3,6	;RP1=0, select bank0
  1436     06D8  01C0               	clrf	_width
  1437     06D9  01C1               	clrf	_width+1
  1438     06DA  3000               	movlw	0
  1439     06DB  00C4               	movwf	_flags
  1440     06DC                     l1453:
  1441                           
  1442                           ;C:\Program Files\Microchip\xc8\v3.10\pic\sources\c99\common\doprnt.c: 1205:         pre
      +                          c = -1;
  1443     06DC  30FF               	movlw	255
  1444     06DD  00C2               	movwf	_prec
  1445     06DE  30FF               	movlw	255
  1446     06DF  00C3               	movwf	_prec+1
  1447     06E0                     l1455:
  1448                           
  1449                           ;C:\Program Files\Microchip\xc8\v3.10\pic\sources\c99\common\doprnt.c: 1273:         if 
      +                          ((*fmt)[0] == 'c') {
  1450     06E0  087C               	movf	vfpfcnvrt@fmt,w
  1451     06E1  0084               	movwf	4
  1452     06E2  0800               	movf	0,w
  1453     06E3  0084               	movwf	4
  1454     06E4  120A  118A  2003  120A  118A  	fcall	stringdir
  1455     06E9  3A63               	xorlw	99
  1456     06EA  1D03               	skipz
  1457     06EB  2EED               	goto	u1341
  1458     06EC  2EEE               	goto	u1340
  1459     06ED                     u1341:
  1460     06ED  2F0B               	goto	l1463
  1461     06EE                     u1340:
  1462     06EE                     l1457:
  1463                           
  1464                           ;C:\Program Files\Microchip\xc8\v3.10\pic\sources\c99\common\doprnt.c: 1274:            
      +                           ++*fmt;
  1465     06EE  087C               	movf	vfpfcnvrt@fmt,w
  1466     06EF  0084               	movwf	4
  1467     06F0  3001               	movlw	1
  1468     06F1  0780               	addwf	0,f
  1469                           
  1470                           ;C:\Program Files\Microchip\xc8\v3.10\pic\sources\c99\common\doprnt.c: 1275:            
      +                           c = (unsigned char)(*(int *)__va_arg(*(int **)ap, (int)0));
  1471     06F2  087D               	movf	vfpfcnvrt@ap,w
  1472     06F3  0084               	movwf	4
  1473     06F4  0800               	movf	0,w
  1474     06F5  00CB               	movwf	??_vfpfcnvrt
  1475     06F6  3002               	movlw	2
  1476     06F7  0780               	addwf	0,f
  1477     06F8  084B               	movf	??_vfpfcnvrt,w
  1478     06F9  0084               	movwf	4
  1479     06FA  0800               	movf	0,w
  1480     06FB  00D3               	movwf	vfpfcnvrt@c
  1481     06FC                     l1459:
  1482                           
  1483                           ;C:\Program Files\Microchip\xc8\v3.10\pic\sources\c99\common\doprnt.c: 1277:    fputc(c,
      +                           fp);
  1484     06FC  0853               	movf	vfpfcnvrt@c,w
  1485     06FD  00CB               	movwf	??_vfpfcnvrt
  1486     06FE  01CC               	clrf	??_vfpfcnvrt+1
  1487     06FF  084B               	movf	??_vfpfcnvrt,w
  1488     0700  00F8               	movwf	fputc@c
  1489     0701  084C               	movf	??_vfpfcnvrt+1,w
  1490     0702  00F9               	movwf	fputc@c+1
  1491     0703  087B               	movf	vfpfcnvrt@fp,w
  1492     0704  00FA               	movwf	fputc@fp
  1493     0705  120A  118A  23D8  120A  118A  	fcall	_fputc
  1494     070A  2FD0               	goto	l759
  1495     070B                     l1463:
  1496                           
  1497                           ;C:\Program Files\Microchip\xc8\v3.10\pic\sources\c99\common\doprnt.c: 1291:   cp = *fmt
      +                          ;
  1498     070B  087C               	movf	vfpfcnvrt@fmt,w
  1499     070C  0084               	movwf	4
  1500     070D  0800               	movf	0,w
  1501     070E  00CE               	movwf	vfpfcnvrt@cp
  1502     070F                     l1465:
  1503                           
  1504                           ;C:\Program Files\Microchip\xc8\v3.10\pic\sources\c99\common\doprnt.c: 1361:   if (*cp =
      +                          = 'd' || *cp == 'i') {
  1505     070F  084E               	movf	vfpfcnvrt@cp,w
  1506     0710  0084               	movwf	4
  1507     0711  120A  118A  2003  120A  118A  	fcall	stringdir
  1508     0716  3A64               	xorlw	100
  1509     0717  1903               	skipnz
  1510     0718  2F1A               	goto	u1351
  1511     0719  2F1B               	goto	u1350
  1512     071A                     u1351:
  1513     071A  2F27               	goto	l1469
  1514     071B                     u1350:
  1515     071B                     l1467:
  1516     071B  084E               	movf	vfpfcnvrt@cp,w
  1517     071C  0084               	movwf	4
  1518     071D  120A  118A  2003  120A  118A  	fcall	stringdir
  1519     0722  3A69               	xorlw	105
  1520     0723  1D03               	skipz
  1521     0724  2F26               	goto	u1361
  1522     0725  2F27               	goto	u1360
  1523     0726                     u1361:
  1524     0726  2FB1               	goto	l1495
  1525     0727                     u1360:
  1526     0727                     l1469:
  1527                           
  1528                           ;C:\Program Files\Microchip\xc8\v3.10\pic\sources\c99\common\doprnt.c: 1404:    convarg.
      +                          sint = (vfpf_sint_t)(int)(*(int *)__va_arg(*(int **)ap, (int)0));
  1529     0727  087D               	movf	vfpfcnvrt@ap,w
  1530     0728  0084               	movwf	4
  1531     0729  0800               	movf	0,w
  1532     072A  00CB               	movwf	??_vfpfcnvrt
  1533     072B  3002               	movlw	2
  1534     072C  0780               	addwf	0,f
  1535     072D  084B               	movf	??_vfpfcnvrt,w
  1536     072E  0084               	movwf	4
  1537     072F  0800               	movf	0,w
  1538     0730  00CF               	movwf	vfpfcnvrt@convarg
  1539     0731  0A84               	incf	4,f
  1540     0732  0800               	movf	0,w
  1541     0733  00D0               	movwf	vfpfcnvrt@convarg+1
  1542                           
  1543                           ;C:\Program Files\Microchip\xc8\v3.10\pic\sources\c99\common\doprnt.c: 1406:    *fmt = c
      +                          p+1;
  1544     0734  087C               	movf	vfpfcnvrt@fmt,w
  1545     0735  0084               	movwf	4
  1546     0736  084E               	movf	vfpfcnvrt@cp,w
  1547     0737  3E01               	addlw	1
  1548     0738  0080               	movwf	0
  1549     0739                     l1471:
  1550                           
  1551                           ;C:\Program Files\Microchip\xc8\v3.10\pic\sources\c99\common\doprnt.c: 1408:    c = size
      +                          of(dbuf);
  1552     0739  3020               	movlw	32
  1553     073A  00D3               	movwf	vfpfcnvrt@c
  1554     073B                     l1473:
  1555                           
  1556                           ;C:\Program Files\Microchip\xc8\v3.10\pic\sources\c99\common\doprnt.c: 1409:    done = c
      +                          onvarg.sint < 0;
  1557     073B  1BD0               	btfsc	vfpfcnvrt@convarg+1,7
  1558     073C  2F3E               	goto	u1371
  1559     073D  2F40               	goto	u1370
  1560     073E                     u1371:
  1561     073E  3001               	movlw	1
  1562     073F  2F41               	goto	u1380
  1563     0740                     u1370:
  1564     0740  3000               	movlw	0
  1565     0741                     u1380:
  1566     0741  00CD               	movwf	vfpfcnvrt@done
  1567     0742                     l1475:
  1568                           
  1569                           ;C:\Program Files\Microchip\xc8\v3.10\pic\sources\c99\common\doprnt.c: 1411:     dbuf[--
      +                          c] = abs(convarg.sint % 10) + '0';
  1570     0742  3001               	movlw	1
  1571     0743  02D3               	subwf	vfpfcnvrt@c,f
  1572     0744  0853               	movf	vfpfcnvrt@c,w
  1573     0745  3EA0               	addlw	(low (_dbuf| 0))& (0+255)
  1574     0746  0084               	movwf	4
  1575     0747  300A               	movlw	10
  1576     0748  00F0               	movwf	___awmod@divisor
  1577     0749  3000               	movlw	0
  1578     074A  00F1               	movwf	___awmod@divisor+1
  1579     074B  0850               	movf	vfpfcnvrt@convarg+1,w
  1580     074C  00F3               	movwf	___awmod@dividend+1
  1581     074D  084F               	movf	vfpfcnvrt@convarg,w
  1582     074E  00F2               	movwf	___awmod@dividend
  1583     074F  120A  118A  2381  120A  118A  	fcall	___awmod
  1584     0754  0871               	movf	?___awmod+1,w
  1585     0755  00F7               	movwf	abs@a+1
  1586     0756  0870               	movf	?___awmod,w
  1587     0757  00F6               	movwf	abs@a
  1588     0758  120A  118A  2294  120A  118A  	fcall	_abs
  1589     075D  0876               	movf	?_abs,w
  1590     075E  3E30               	addlw	48
  1591     075F  1383               	bcf	3,7	;select IRP bank1
  1592     0760  0080               	movwf	0
  1593     0761                     l1477:
  1594                           
  1595                           ;C:\Program Files\Microchip\xc8\v3.10\pic\sources\c99\common\doprnt.c: 1412:     convarg
      +                          .sint /= 10;
  1596     0761  300A               	movlw	10
  1597     0762  00F0               	movwf	___awdiv@divisor
  1598     0763  3000               	movlw	0
  1599     0764  00F1               	movwf	___awdiv@divisor+1
  1600     0765  1283               	bcf	3,5	;RP0=0, select bank0
  1601     0766  1303               	bcf	3,6	;RP1=0, select bank0
  1602     0767  0850               	movf	vfpfcnvrt@convarg+1,w
  1603     0768  00F3               	movwf	___awdiv@dividend+1
  1604     0769  084F               	movf	vfpfcnvrt@convarg,w
  1605     076A  00F2               	movwf	___awdiv@dividend
  1606     076B  120A  118A  242F  120A  118A  	fcall	___awdiv
  1607     0770  0871               	movf	?___awdiv+1,w
  1608     0771  1283               	bcf	3,5	;RP0=0, select bank0
  1609     0772  1303               	bcf	3,6	;RP1=0, select bank0
  1610     0773  00D0               	movwf	vfpfcnvrt@convarg+1
  1611     0774  0870               	movf	?___awdiv,w
  1612     0775  00CF               	movwf	vfpfcnvrt@convarg
  1613     0776                     l1479:
  1614                           
  1615                           ;C:\Program Files\Microchip\xc8\v3.10\pic\sources\c99\common\doprnt.c: 1416:    } while 
      +                          (convarg.sint != 0 && c != 0);
  1616     0776  084F               	movf	vfpfcnvrt@convarg,w
  1617     0777  0450               	iorwf	vfpfcnvrt@convarg+1,w
  1618     0778  1903               	btfsc	3,2
  1619     0779  2F7B               	goto	u1391
  1620     077A  2F7C               	goto	u1390
  1621     077B                     u1391:
  1622     077B  2F81               	goto	l1483
  1623     077C                     u1390:
  1624     077C                     l1481:
  1625     077C  0853               	movf	vfpfcnvrt@c,w
  1626     077D  1D03               	btfss	3,2
  1627     077E  2F80               	goto	u1401
  1628     077F  2F81               	goto	u1400
  1629     0780                     u1401:
  1630     0780  2F42               	goto	l1475
  1631     0781                     u1400:
  1632     0781                     l1483:
  1633                           
  1634                           ;C:\Program Files\Microchip\xc8\v3.10\pic\sources\c99\common\doprnt.c: 1417:    if (c !=
      +                           0 && done) {
  1635     0781  0853               	movf	vfpfcnvrt@c,w
  1636     0782  1903               	btfsc	3,2
  1637     0783  2F85               	goto	u1411
  1638     0784  2F86               	goto	u1410
  1639     0785                     u1411:
  1640     0785  2FAA               	goto	l1493
  1641     0786                     u1410:
  1642     0786                     l1485:
  1643     0786  084D               	movf	vfpfcnvrt@done,w
  1644     0787  1903               	btfsc	3,2
  1645     0788  2F8A               	goto	u1421
  1646     0789  2F8B               	goto	u1420
  1647     078A                     u1421:
  1648     078A  2FAA               	goto	l1493
  1649     078B                     u1420:
  1650     078B                     l1487:
  1651                           
  1652                           ;C:\Program Files\Microchip\xc8\v3.10\pic\sources\c99\common\doprnt.c: 1418:     dbuf[--
      +                          c] = '-';
  1653     078B  3001               	movlw	1
  1654     078C  02D3               	subwf	vfpfcnvrt@c,f
  1655     078D  0853               	movf	vfpfcnvrt@c,w
  1656     078E  3EA0               	addlw	(low (_dbuf| 0))& (0+255)
  1657     078F  0084               	movwf	4
  1658     0790  302D               	movlw	45
  1659     0791  1383               	bcf	3,7	;select IRP bank1
  1660     0792  0080               	movwf	0
  1661     0793  2FAA               	goto	l1493
  1662     0794                     l1489:
  1663                           
  1664                           ;C:\Program Files\Microchip\xc8\v3.10\pic\sources\c99\common\doprnt.c: 1424:     fputc(d
      +                          buf[c++], fp);
  1665     0794  0853               	movf	vfpfcnvrt@c,w
  1666     0795  3EA0               	addlw	(low (_dbuf| 0))& (0+255)
  1667     0796  0084               	movwf	4
  1668     0797  1383               	bcf	3,7	;select IRP bank1
  1669     0798  0800               	movf	0,w
  1670     0799  00CB               	movwf	??_vfpfcnvrt
  1671     079A  01CC               	clrf	??_vfpfcnvrt+1
  1672     079B  084B               	movf	??_vfpfcnvrt,w
  1673     079C  00F8               	movwf	fputc@c
  1674     079D  084C               	movf	??_vfpfcnvrt+1,w
  1675     079E  00F9               	movwf	fputc@c+1
  1676     079F  087B               	movf	vfpfcnvrt@fp,w
  1677     07A0  00FA               	movwf	fputc@fp
  1678     07A1  120A  118A  23D8  120A  118A  	fcall	_fputc
  1679     07A6                     l1491:
  1680     07A6  3001               	movlw	1
  1681     07A7  1283               	bcf	3,5	;RP0=0, select bank0
  1682     07A8  1303               	bcf	3,6	;RP1=0, select bank0
  1683     07A9  07D3               	addwf	vfpfcnvrt@c,f
  1684     07AA                     l1493:
  1685                           
  1686                           ;C:\Program Files\Microchip\xc8\v3.10\pic\sources\c99\common\doprnt.c: 1423:    while (c
      +                           != sizeof(dbuf)) {
  1687     07AA  3020               	movlw	32
  1688     07AB  0653               	xorwf	vfpfcnvrt@c,w
  1689     07AC  1D03               	btfss	3,2
  1690     07AD  2FAF               	goto	u1431
  1691     07AE  2FB0               	goto	u1430
  1692     07AF                     u1431:
  1693     07AF  2F94               	goto	l1489
  1694     07B0                     u1430:
  1695     07B0  2FD0               	goto	l759
  1696     07B1                     l1495:
  1697                           
  1698                           ;C:\Program Files\Microchip\xc8\v3.10\pic\sources\c99\common\doprnt.c: 1806:         ++*
      +                          fmt;
  1699     07B1  087C               	movf	vfpfcnvrt@fmt,w
  1700     07B2  0084               	movwf	4
  1701     07B3  3001               	movlw	1
  1702     07B4  1383               	bcf	3,7	;select IRP bank0
  1703     07B5  0780               	addwf	0,f
  1704     07B6  2FD0               	goto	l759
  1705     07B7                     l1499:
  1706                           
  1707                           ;C:\Program Files\Microchip\xc8\v3.10\pic\sources\c99\common\doprnt.c: 1811:     fputc((
      +                          int)(*fmt)[0], fp);
  1708     07B7  087C               	movf	vfpfcnvrt@fmt,w
  1709     07B8  0084               	movwf	4
  1710     07B9  0800               	movf	0,w
  1711     07BA  0084               	movwf	4
  1712     07BB  120A  118A  2003  120A  118A  	fcall	stringdir
  1713     07C0  1283               	bcf	3,5	;RP0=0, select bank0
  1714     07C1  1303               	bcf	3,6	;RP1=0, select bank0
  1715     07C2  00CB               	movwf	??_vfpfcnvrt
  1716     07C3  01CC               	clrf	??_vfpfcnvrt+1
  1717     07C4  084B               	movf	??_vfpfcnvrt,w
  1718     07C5  00F8               	movwf	fputc@c
  1719     07C6  084C               	movf	??_vfpfcnvrt+1,w
  1720     07C7  00F9               	movwf	fputc@c+1
  1721     07C8  087B               	movf	vfpfcnvrt@fp,w
  1722     07C9  00FA               	movwf	fputc@fp
  1723     07CA  120A  118A  23D8  120A  118A  	fcall	_fputc
  1724     07CF  2FB1               	goto	l1495
  1725     07D0                     l759:
  1726     07D0  0008               	return
  1727     07D1                     __end_of_vfpfcnvrt:
  1728                           
  1729                           	psect	text5
  1730     03D8                     __ptext5:	
  1731 ;; *************** function _fputc *****************
  1732 ;; Defined at:
  1733 ;;		line 8 in file "C:\Program Files\Microchip\xc8\v3.10\pic\sources\c99\common\nf_fputc.c"
  1734 ;; Parameters:    Size  Location     Type
  1735 ;;  c               2    8[COMMON] int 
  1736 ;;  fp              1   10[COMMON] PTR struct _IO_FILE
  1737 ;;		 -> NULL(0), 
  1738 ;; Auto vars:     Size  Location     Type
  1739 ;;		None
  1740 ;; Return value:  Size  Location     Type
  1741 ;;                  2    8[COMMON] int 
  1742 ;; Registers used:
  1743 ;;		wreg, fsr0l, fsr0h, status,2, status,0, pclath, cstack
  1744 ;; Tracked objects:
  1745 ;;		On entry : 0/0
  1746 ;;		On exit  : 0/0
  1747 ;;		Unchanged: 0/0
  1748 ;; Data sizes:     COMMON   BANK0   BANK1   BANK3   BANK2
  1749 ;;      Params:         3       0       0       0       0
  1750 ;;      Locals:         0       0       0       0       0
  1751 ;;      Temps:          0       5       0       0       0
  1752 ;;      Totals:         3       5       0       0       0
  1753 ;;Total ram usage:        8 bytes
  1754 ;; Hardware stack levels used: 1
  1755 ;; Hardware stack levels required when called: 2
  1756 ;; This function calls:
  1757 ;;		_putch
  1758 ;; This function is called by:
  1759 ;;		_vfpfcnvrt
  1760 ;; This function uses a non-reentrant model
  1761 ;;
  1762                           
  1763     03D8                     _fputc:	
  1764                           ;psect for function _fputc
  1765                           
  1766     03D8                     l1425:	
  1767                           ;incstack = 0
  1768                           ; Regs used in _fputc: [wreg-fsr0h+status,2+status,0+pclath+cstack]
  1769                           
  1770     03D8  087A               	movf	fputc@fp,w
  1771     03D9  1903               	btfsc	3,2
  1772     03DA  2BDC               	goto	u1281
  1773     03DB  2BDD               	goto	u1280
  1774     03DC                     u1281:
  1775     03DC  2BE2               	goto	l1429
  1776     03DD                     u1280:
  1777     03DD                     l1427:
  1778     03DD  087A               	movf	fputc@fp,w
  1779     03DE  1D03               	btfss	3,2
  1780     03DF  2BE1               	goto	u1291
  1781     03E0  2BE2               	goto	u1290
  1782     03E1                     u1291:
  1783     03E1  2BE9               	goto	l1431
  1784     03E2                     u1290:
  1785     03E2                     l1429:
  1786     03E2  0878               	movf	fputc@c,w
  1787     03E3  120A  118A  221D  120A  118A  	fcall	_putch
  1788     03E8  2C2E               	goto	l795
  1789     03E9                     l1431:
  1790     03E9  087A               	movf	fputc@fp,w
  1791     03EA  3E08               	addlw	8
  1792     03EB  0084               	movwf	4
  1793     03EC  1383               	bcf	3,7	;select IRP bank0
  1794     03ED  0800               	movf	0,w
  1795     03EE  1283               	bcf	3,5	;RP0=0, select bank0
  1796     03EF  1303               	bcf	3,6	;RP1=0, select bank0
  1797     03F0  00C6               	movwf	??_fputc
  1798     03F1  0A84               	incf	4,f
  1799     03F2  0800               	movf	0,w
  1800     03F3  00C7               	movwf	??_fputc+1
  1801     03F4  0846               	movf	??_fputc,w
  1802     03F5  0447               	iorwf	??_fputc+1,w
  1803     03F6  1903               	btfsc	3,2
  1804     03F7  2BF9               	goto	u1301
  1805     03F8  2BFA               	goto	u1300
  1806     03F9                     u1301:
  1807     03F9  2C17               	goto	l1435
  1808     03FA                     u1300:
  1809     03FA                     l1433:
  1810     03FA  087A               	movf	fputc@fp,w
  1811     03FB  3E08               	addlw	8
  1812     03FC  0084               	movwf	4
  1813     03FD  0800               	movf	0,w
  1814     03FE  00C6               	movwf	??_fputc
  1815     03FF  0A84               	incf	4,f
  1816     0400  0800               	movf	0,w
  1817     0401  00C7               	movwf	??_fputc+1
  1818     0402  0A7A               	incf	fputc@fp,w
  1819     0403  0084               	movwf	4
  1820     0404  0800               	movf	0,w
  1821     0405  00C8               	movwf	??_fputc+2
  1822     0406  0A84               	incf	4,f
  1823     0407  0800               	movf	0,w
  1824     0408  00C9               	movwf	??_fputc+3
  1825     0409  0849               	movf	??_fputc+3,w
  1826     040A  3A80               	xorlw	128
  1827     040B  00CA               	movwf	??_fputc+4
  1828     040C  0847               	movf	??_fputc+1,w
  1829     040D  3A80               	xorlw	128
  1830     040E  024A               	subwf	??_fputc+4,w
  1831     040F  1D03               	skipz
  1832     0410  2C13               	goto	u1315
  1833     0411  0846               	movf	??_fputc,w
  1834     0412  0248               	subwf	??_fputc+2,w
  1835     0413                     u1315:
  1836     0413  1803               	skipnc
  1837     0414  2C16               	goto	u1311
  1838     0415  2C17               	goto	u1310
  1839     0416                     u1311:
  1840     0416  2C2E               	goto	l795
  1841     0417                     u1310:
  1842     0417                     l1435:
  1843     0417  0A7A               	incf	fputc@fp,w
  1844     0418  0084               	movwf	4
  1845     0419  1383               	bcf	3,7	;select IRP bank0
  1846     041A  0800               	movf	0,w
  1847     041B  1283               	bcf	3,5	;RP0=0, select bank0
  1848     041C  1303               	bcf	3,6	;RP1=0, select bank0
  1849     041D  00C6               	movwf	??_fputc
  1850     041E  087A               	movf	fputc@fp,w
  1851     041F  0084               	movwf	4
  1852     0420  0800               	movf	0,w
  1853     0421  0746               	addwf	??_fputc,w
  1854     0422  00C7               	movwf	??_fputc+1
  1855     0423  0847               	movf	??_fputc+1,w
  1856     0424  0084               	movwf	4
  1857     0425  0878               	movf	fputc@c,w
  1858     0426  0080               	movwf	0
  1859     0427  0A7A               	incf	fputc@fp,w
  1860     0428  0084               	movwf	4
  1861     0429  3001               	movlw	1
  1862     042A  0780               	addwf	0,f
  1863     042B  0A84               	incf	4,f
  1864     042C  1803               	skipnc
  1865     042D  0A80               	incf	0,f
  1866     042E                     l795:
  1867     042E  0008               	return
  1868     042F                     __end_of_fputc:
  1869                           
  1870                           	psect	text6
  1871     021D                     __ptext6:	
  1872 ;; *************** function _putch *****************
  1873 ;; Defined at:
  1874 ;;		line 312 in file "../Bai_1_GPIO.X/lcd.c"
  1875 ;; Parameters:    Size  Location     Type
  1876 ;;  c               1    wreg     unsigned char 
  1877 ;; Auto vars:     Size  Location     Type
  1878 ;;  c               1    7[COMMON] unsigned char 
  1879 ;; Return value:  Size  Location     Type
  1880 ;;                  1    wreg      void 
  1881 ;; Registers used:
  1882 ;;		wreg, status,2, status,0, pclath, cstack
  1883 ;; Tracked objects:
  1884 ;;		On entry : 0/0
  1885 ;;		On exit  : 0/0
  1886 ;;		Unchanged: 0/0
  1887 ;; Data sizes:     COMMON   BANK0   BANK1   BANK3   BANK2
  1888 ;;      Params:         0       0       0       0       0
  1889 ;;      Locals:         1       0       0       0       0
  1890 ;;      Temps:          0       0       0       0       0
  1891 ;;      Totals:         1       0       0       0       0
  1892 ;;Total ram usage:        1 bytes
  1893 ;; Hardware stack levels used: 1
  1894 ;; Hardware stack levels required when called: 1
  1895 ;; This function calls:
  1896 ;;		_lcd_putc
  1897 ;; This function is called by:
  1898 ;;		_fputc
  1899 ;; This function uses a non-reentrant model
  1900 ;;
  1901                           
  1902     021D                     _putch:	
  1903                           ;psect for function _putch
  1904                           
  1905                           
  1906                           ;incstack = 0
  1907                           ; Regs used in _putch: [wreg+status,2+status,0+pclath+cstack]
  1908                           ;putch@c stored from wreg
  1909     021D  00F7               	movwf	putch@c
  1910     021E                     l1341:
  1911                           
  1912                           ;../Bai_1_GPIO.X/lcd.c: 312: void putch(char c);../Bai_1_GPIO.X/lcd.c: 313: {;../Bai_1_G
      +                          PIO.X/lcd.c: 314:     lcd_putc(c);
  1913     021E  0877               	movf	putch@c,w
  1914     021F  120A  118A  22A5  120A  118A  	fcall	_lcd_putc
  1915     0224                     l129:
  1916     0224  0008               	return
  1917     0225                     __end_of_putch:
  1918                           
  1919                           	psect	text7
  1920     0294                     __ptext7:	
  1921 ;; *************** function _abs *****************
  1922 ;; Defined at:
  1923 ;;		line 1 in file "C:\Program Files\Microchip\xc8\v3.10\pic\sources\c99\common\abs.c"
  1924 ;; Parameters:    Size  Location     Type
  1925 ;;  a               2    6[COMMON] int 
  1926 ;; Auto vars:     Size  Location     Type
  1927 ;;		None
  1928 ;; Return value:  Size  Location     Type
  1929 ;;                  2    6[COMMON] int 
  1930 ;; Registers used:
  1931 ;;		wreg, status,2, status,0
  1932 ;; Tracked objects:
  1933 ;;		On entry : 0/0
  1934 ;;		On exit  : 0/0
  1935 ;;		Unchanged: 0/0
  1936 ;; Data sizes:     COMMON   BANK0   BANK1   BANK3   BANK2
  1937 ;;      Params:         2       0       0       0       0
  1938 ;;      Locals:         0       0       0       0       0
  1939 ;;      Temps:          2       0       0       0       0
  1940 ;;      Totals:         4       0       0       0       0
  1941 ;;Total ram usage:        4 bytes
  1942 ;; Hardware stack levels used: 1
  1943 ;; This function calls:
  1944 ;;		Nothing
  1945 ;; This function is called by:
  1946 ;;		_vfpfcnvrt
  1947 ;; This function uses a non-reentrant model
  1948 ;;
  1949                           
  1950     0294                     _abs:	
  1951                           ;psect for function _abs
  1952                           
  1953     0294                     l1439:	
  1954                           ;incstack = 0
  1955                           ; Regs used in _abs: [wreg+status,2+status,0]
  1956                           
  1957     0294  1BF7               	btfsc	abs@a+1,7
  1958     0295  2A97               	goto	u1321
  1959     0296  2A98               	goto	u1320
  1960     0297                     u1321:
  1961     0297  2A99               	goto	l1443
  1962     0298                     u1320:
  1963     0298                     l1441:
  1964     0298  2AA4               	goto	l783
  1965     0299                     l1443:
  1966     0299  0976               	comf	abs@a,w
  1967     029A  00F8               	movwf	??_abs
  1968     029B  0977               	comf	abs@a+1,w
  1969     029C  00F9               	movwf	??_abs+1
  1970     029D  0AF8               	incf	??_abs,f
  1971     029E  1903               	skipnz
  1972     029F  0AF9               	incf	??_abs+1,f
  1973     02A0  0878               	movf	??_abs,w
  1974     02A1  00F6               	movwf	?_abs
  1975     02A2  0879               	movf	??_abs+1,w
  1976     02A3  00F7               	movwf	?_abs+1
  1977     02A4                     l783:
  1978     02A4  0008               	return
  1979     02A5                     __end_of_abs:
  1980                           
  1981                           	psect	text8
  1982     0381                     __ptext8:	
  1983 ;; *************** function ___awmod *****************
  1984 ;; Defined at:
  1985 ;;		line 5 in file "C:\Program Files\Microchip\xc8\v3.10\pic\sources\c99\common\awmod.c"
  1986 ;; Parameters:    Size  Location     Type
  1987 ;;  divisor         2    0[COMMON] int 
  1988 ;;  dividend        2    2[COMMON] int 
  1989 ;; Auto vars:     Size  Location     Type
  1990 ;;  sign            1    5[COMMON] unsigned char 
  1991 ;;  counter         1    4[COMMON] unsigned char 
  1992 ;; Return value:  Size  Location     Type
  1993 ;;                  2    0[COMMON] int 
  1994 ;; Registers used:
  1995 ;;		wreg, status,2, status,0
  1996 ;; Tracked objects:
  1997 ;;		On entry : 0/0
  1998 ;;		On exit  : 0/0
  1999 ;;		Unchanged: 0/0
  2000 ;; Data sizes:     COMMON   BANK0   BANK1   BANK3   BANK2
  2001 ;;      Params:         4       0       0       0       0
  2002 ;;      Locals:         2       0       0       0       0
  2003 ;;      Temps:          0       0       0       0       0
  2004 ;;      Totals:         6       0       0       0       0
  2005 ;;Total ram usage:        6 bytes
  2006 ;; Hardware stack levels used: 1
  2007 ;; This function calls:
  2008 ;;		Nothing
  2009 ;; This function is called by:
  2010 ;;		_vfpfcnvrt
  2011 ;; This function uses a non-reentrant model
  2012 ;;
  2013                           
  2014     0381                     ___awmod:	
  2015                           ;psect for function ___awmod
  2016                           
  2017     0381                     l1387:	
  2018                           ;incstack = 0
  2019                           ; Regs used in ___awmod: [wreg+status,2+status,0]
  2020                           
  2021     0381  01F5               	clrf	___awmod@sign
  2022     0382                     l1389:
  2023     0382  1FF3               	btfss	___awmod@dividend+1,7
  2024     0383  2B85               	goto	u1191
  2025     0384  2B86               	goto	u1190
  2026     0385                     u1191:
  2027     0385  2B8D               	goto	l1395
  2028     0386                     u1190:
  2029     0386                     l1391:
  2030     0386  09F2               	comf	___awmod@dividend,f
  2031     0387  09F3               	comf	___awmod@dividend+1,f
  2032     0388  0AF2               	incf	___awmod@dividend,f
  2033     0389  1903               	skipnz
  2034     038A  0AF3               	incf	___awmod@dividend+1,f
  2035     038B                     l1393:
  2036     038B  3001               	movlw	1
  2037     038C  00F5               	movwf	___awmod@sign
  2038     038D                     l1395:
  2039     038D  1FF1               	btfss	___awmod@divisor+1,7
  2040     038E  2B90               	goto	u1201
  2041     038F  2B91               	goto	u1200
  2042     0390                     u1201:
  2043     0390  2B96               	goto	l1399
  2044     0391                     u1200:
  2045     0391                     l1397:
  2046     0391  09F0               	comf	___awmod@divisor,f
  2047     0392  09F1               	comf	___awmod@divisor+1,f
  2048     0393  0AF0               	incf	___awmod@divisor,f
  2049     0394  1903               	skipnz
  2050     0395  0AF1               	incf	___awmod@divisor+1,f
  2051     0396                     l1399:
  2052     0396  0870               	movf	___awmod@divisor,w
  2053     0397  0471               	iorwf	___awmod@divisor+1,w
  2054     0398  1903               	btfsc	3,2
  2055     0399  2B9B               	goto	u1211
  2056     039A  2B9C               	goto	u1210
  2057     039B                     u1211:
  2058     039B  2BC9               	goto	l1417
  2059     039C                     u1210:
  2060     039C                     l1401:
  2061     039C  3001               	movlw	1
  2062     039D  00F4               	movwf	___awmod@counter
  2063     039E  2BA8               	goto	l1407
  2064     039F                     l1403:
  2065     039F  3001               	movlw	1
  2066     03A0                     u1225:
  2067     03A0  1003               	clrc
  2068     03A1  0DF0               	rlf	___awmod@divisor,f
  2069     03A2  0DF1               	rlf	___awmod@divisor+1,f
  2070     03A3  3EFF               	addlw	-1
  2071     03A4  1D03               	skipz
  2072     03A5  2BA0               	goto	u1225
  2073     03A6                     l1405:
  2074     03A6  3001               	movlw	1
  2075     03A7  07F4               	addwf	___awmod@counter,f
  2076     03A8                     l1407:
  2077     03A8  1FF1               	btfss	___awmod@divisor+1,7
  2078     03A9  2BAB               	goto	u1231
  2079     03AA  2BAC               	goto	u1230
  2080     03AB                     u1231:
  2081     03AB  2B9F               	goto	l1403
  2082     03AC                     u1230:
  2083     03AC                     l1409:
  2084     03AC  0871               	movf	___awmod@divisor+1,w
  2085     03AD  0273               	subwf	___awmod@dividend+1,w
  2086     03AE  1D03               	skipz
  2087     03AF  2BB2               	goto	u1245
  2088     03B0  0870               	movf	___awmod@divisor,w
  2089     03B1  0272               	subwf	___awmod@dividend,w
  2090     03B2                     u1245:
  2091     03B2  1C03               	skipc
  2092     03B3  2BB5               	goto	u1241
  2093     03B4  2BB6               	goto	u1240
  2094     03B5                     u1241:
  2095     03B5  2BBC               	goto	l1413
  2096     03B6                     u1240:
  2097     03B6                     l1411:
  2098     03B6  0870               	movf	___awmod@divisor,w
  2099     03B7  02F2               	subwf	___awmod@dividend,f
  2100     03B8  0871               	movf	___awmod@divisor+1,w
  2101     03B9  1C03               	skipc
  2102     03BA  03F3               	decf	___awmod@dividend+1,f
  2103     03BB  02F3               	subwf	___awmod@dividend+1,f
  2104     03BC                     l1413:
  2105     03BC  3001               	movlw	1
  2106     03BD                     u1255:
  2107     03BD  1003               	clrc
  2108     03BE  0CF1               	rrf	___awmod@divisor+1,f
  2109     03BF  0CF0               	rrf	___awmod@divisor,f
  2110     03C0  3EFF               	addlw	-1
  2111     03C1  1D03               	skipz
  2112     03C2  2BBD               	goto	u1255
  2113     03C3                     l1415:
  2114     03C3  3001               	movlw	1
  2115     03C4  02F4               	subwf	___awmod@counter,f
  2116     03C5  1D03               	btfss	3,2
  2117     03C6  2BC8               	goto	u1261
  2118     03C7  2BC9               	goto	u1260
  2119     03C8                     u1261:
  2120     03C8  2BAC               	goto	l1409
  2121     03C9                     u1260:
  2122     03C9                     l1417:
  2123     03C9  0875               	movf	___awmod@sign,w
  2124     03CA  1903               	btfsc	3,2
  2125     03CB  2BCD               	goto	u1271
  2126     03CC  2BCE               	goto	u1270
  2127     03CD                     u1271:
  2128     03CD  2BD3               	goto	l1421
  2129     03CE                     u1270:
  2130     03CE                     l1419:
  2131     03CE  09F2               	comf	___awmod@dividend,f
  2132     03CF  09F3               	comf	___awmod@dividend+1,f
  2133     03D0  0AF2               	incf	___awmod@dividend,f
  2134     03D1  1903               	skipnz
  2135     03D2  0AF3               	incf	___awmod@dividend+1,f
  2136     03D3                     l1421:
  2137     03D3  0873               	movf	___awmod@dividend+1,w
  2138     03D4  00F1               	movwf	?___awmod+1
  2139     03D5  0872               	movf	___awmod@dividend,w
  2140     03D6  00F0               	movwf	?___awmod
  2141     03D7                     l434:
  2142     03D7  0008               	return
  2143     03D8                     __end_of___awmod:
  2144                           
  2145                           	psect	text9
  2146     042F                     __ptext9:	
  2147 ;; *************** function ___awdiv *****************
  2148 ;; Defined at:
  2149 ;;		line 5 in file "C:\Program Files\Microchip\xc8\v3.10\pic\sources\c99\common\awdiv.c"
  2150 ;; Parameters:    Size  Location     Type
  2151 ;;  divisor         2    0[COMMON] int 
  2152 ;;  dividend        2    2[COMMON] int 
  2153 ;; Auto vars:     Size  Location     Type
  2154 ;;  quotient        2    6[COMMON] int 
  2155 ;;  sign            1    5[COMMON] unsigned char 
  2156 ;;  counter         1    4[COMMON] unsigned char 
  2157 ;; Return value:  Size  Location     Type
  2158 ;;                  2    0[COMMON] int 
  2159 ;; Registers used:
  2160 ;;		wreg, status,2, status,0
  2161 ;; Tracked objects:
  2162 ;;		On entry : 0/0
  2163 ;;		On exit  : 0/0
  2164 ;;		Unchanged: 0/0
  2165 ;; Data sizes:     COMMON   BANK0   BANK1   BANK3   BANK2
  2166 ;;      Params:         4       0       0       0       0
  2167 ;;      Locals:         4       0       0       0       0
  2168 ;;      Temps:          0       0       0       0       0
  2169 ;;      Totals:         8       0       0       0       0
  2170 ;;Total ram usage:        8 bytes
  2171 ;; Hardware stack levels used: 1
  2172 ;; This function calls:
  2173 ;;		Nothing
  2174 ;; This function is called by:
  2175 ;;		_vfpfcnvrt
  2176 ;; This function uses a non-reentrant model
  2177 ;;
  2178                           
  2179     042F                     ___awdiv:	
  2180                           ;psect for function ___awdiv
  2181                           
  2182     042F                     l1343:	
  2183                           ;incstack = 0
  2184                           ; Regs used in ___awdiv: [wreg+status,2+status,0]
  2185                           
  2186     042F  01F5               	clrf	___awdiv@sign
  2187     0430                     l1345:
  2188     0430  1FF1               	btfss	___awdiv@divisor+1,7
  2189     0431  2C33               	goto	u1091
  2190     0432  2C34               	goto	u1090
  2191     0433                     u1091:
  2192     0433  2C3B               	goto	l1351
  2193     0434                     u1090:
  2194     0434                     l1347:
  2195     0434  09F0               	comf	___awdiv@divisor,f
  2196     0435  09F1               	comf	___awdiv@divisor+1,f
  2197     0436  0AF0               	incf	___awdiv@divisor,f
  2198     0437  1903               	skipnz
  2199     0438  0AF1               	incf	___awdiv@divisor+1,f
  2200     0439                     l1349:
  2201     0439  3001               	movlw	1
  2202     043A  00F5               	movwf	___awdiv@sign
  2203     043B                     l1351:
  2204     043B  1FF3               	btfss	___awdiv@dividend+1,7
  2205     043C  2C3E               	goto	u1101
  2206     043D  2C3F               	goto	u1100
  2207     043E                     u1101:
  2208     043E  2C46               	goto	l1357
  2209     043F                     u1100:
  2210     043F                     l1353:
  2211     043F  09F2               	comf	___awdiv@dividend,f
  2212     0440  09F3               	comf	___awdiv@dividend+1,f
  2213     0441  0AF2               	incf	___awdiv@dividend,f
  2214     0442  1903               	skipnz
  2215     0443  0AF3               	incf	___awdiv@dividend+1,f
  2216     0444                     l1355:
  2217     0444  3001               	movlw	1
  2218     0445  06F5               	xorwf	___awdiv@sign,f
  2219     0446                     l1357:
  2220     0446  01F6               	clrf	___awdiv@quotient
  2221     0447  01F7               	clrf	___awdiv@quotient+1
  2222     0448                     l1359:
  2223     0448  0870               	movf	___awdiv@divisor,w
  2224     0449  0471               	iorwf	___awdiv@divisor+1,w
  2225     044A  1903               	btfsc	3,2
  2226     044B  2C4D               	goto	u1111
  2227     044C  2C4E               	goto	u1110
  2228     044D                     u1111:
  2229     044D  2C83               	goto	l1379
  2230     044E                     u1110:
  2231     044E                     l1361:
  2232     044E  3001               	movlw	1
  2233     044F  00F4               	movwf	___awdiv@counter
  2234     0450  2C5A               	goto	l1367
  2235     0451                     l1363:
  2236     0451  3001               	movlw	1
  2237     0452                     u1125:
  2238     0452  1003               	clrc
  2239     0453  0DF0               	rlf	___awdiv@divisor,f
  2240     0454  0DF1               	rlf	___awdiv@divisor+1,f
  2241     0455  3EFF               	addlw	-1
  2242     0456  1D03               	skipz
  2243     0457  2C52               	goto	u1125
  2244     0458                     l1365:
  2245     0458  3001               	movlw	1
  2246     0459  07F4               	addwf	___awdiv@counter,f
  2247     045A                     l1367:
  2248     045A  1FF1               	btfss	___awdiv@divisor+1,7
  2249     045B  2C5D               	goto	u1131
  2250     045C  2C5E               	goto	u1130
  2251     045D                     u1131:
  2252     045D  2C51               	goto	l1363
  2253     045E                     u1130:
  2254     045E                     l1369:
  2255     045E  3001               	movlw	1
  2256     045F                     u1145:
  2257     045F  1003               	clrc
  2258     0460  0DF6               	rlf	___awdiv@quotient,f
  2259     0461  0DF7               	rlf	___awdiv@quotient+1,f
  2260     0462  3EFF               	addlw	-1
  2261     0463  1D03               	skipz
  2262     0464  2C5F               	goto	u1145
  2263     0465  0871               	movf	___awdiv@divisor+1,w
  2264     0466  0273               	subwf	___awdiv@dividend+1,w
  2265     0467  1D03               	skipz
  2266     0468  2C6B               	goto	u1155
  2267     0469  0870               	movf	___awdiv@divisor,w
  2268     046A  0272               	subwf	___awdiv@dividend,w
  2269     046B                     u1155:
  2270     046B  1C03               	skipc
  2271     046C  2C6E               	goto	u1151
  2272     046D  2C6F               	goto	u1150
  2273     046E                     u1151:
  2274     046E  2C76               	goto	l1375
  2275     046F                     u1150:
  2276     046F                     l1371:
  2277     046F  0870               	movf	___awdiv@divisor,w
  2278     0470  02F2               	subwf	___awdiv@dividend,f
  2279     0471  0871               	movf	___awdiv@divisor+1,w
  2280     0472  1C03               	skipc
  2281     0473  03F3               	decf	___awdiv@dividend+1,f
  2282     0474  02F3               	subwf	___awdiv@dividend+1,f
  2283     0475                     l1373:
  2284     0475  1476               	bsf	___awdiv@quotient,0
  2285     0476                     l1375:
  2286     0476  3001               	movlw	1
  2287     0477                     u1165:
  2288     0477  1003               	clrc
  2289     0478  0CF1               	rrf	___awdiv@divisor+1,f
  2290     0479  0CF0               	rrf	___awdiv@divisor,f
  2291     047A  3EFF               	addlw	-1
  2292     047B  1D03               	skipz
  2293     047C  2C77               	goto	u1165
  2294     047D                     l1377:
  2295     047D  3001               	movlw	1
  2296     047E  02F4               	subwf	___awdiv@counter,f
  2297     047F  1D03               	btfss	3,2
  2298     0480  2C82               	goto	u1171
  2299     0481  2C83               	goto	u1170
  2300     0482                     u1171:
  2301     0482  2C5E               	goto	l1369
  2302     0483                     u1170:
  2303     0483                     l1379:
  2304     0483  0875               	movf	___awdiv@sign,w
  2305     0484  1903               	btfsc	3,2
  2306     0485  2C87               	goto	u1181
  2307     0486  2C88               	goto	u1180
  2308     0487                     u1181:
  2309     0487  2C8D               	goto	l1383
  2310     0488                     u1180:
  2311     0488                     l1381:
  2312     0488  09F6               	comf	___awdiv@quotient,f
  2313     0489  09F7               	comf	___awdiv@quotient+1,f
  2314     048A  0AF6               	incf	___awdiv@quotient,f
  2315     048B  1903               	skipnz
  2316     048C  0AF7               	incf	___awdiv@quotient+1,f
  2317     048D                     l1383:
  2318     048D  0877               	movf	___awdiv@quotient+1,w
  2319     048E  00F1               	movwf	?___awdiv+1
  2320     048F  0876               	movf	___awdiv@quotient,w
  2321     0490  00F0               	movwf	?___awdiv
  2322     0491                     l421:
  2323     0491  0008               	return
  2324     0492                     __end_of___awdiv:
  2325                           
  2326                           	psect	text10
  2327     02CA                     __ptext10:	
  2328 ;; *************** function _lcd_puts *****************
  2329 ;; Defined at:
  2330 ;;		line 85 in file "../Bai_1_GPIO.X/lcd.c"
  2331 ;; Parameters:    Size  Location     Type
  2332 ;;  string_char     1    7[COMMON] PTR const unsigned char 
  2333 ;;		 -> STR_1(17), 
  2334 ;; Auto vars:     Size  Location     Type
  2335 ;;		None
  2336 ;; Return value:  Size  Location     Type
  2337 ;;                  1    wreg      void 
  2338 ;; Registers used:
  2339 ;;		wreg, fsr0l, fsr0h, status,2, status,0, pclath, cstack
  2340 ;; Tracked objects:
  2341 ;;		On entry : 0/0
  2342 ;;		On exit  : 0/0
  2343 ;;		Unchanged: 0/0
  2344 ;; Data sizes:     COMMON   BANK0   BANK1   BANK3   BANK2
  2345 ;;      Params:         1       0       0       0       0
  2346 ;;      Locals:         0       0       0       0       0
  2347 ;;      Temps:          0       0       0       0       0
  2348 ;;      Totals:         1       0       0       0       0
  2349 ;;Total ram usage:        1 bytes
  2350 ;; Hardware stack levels used: 1
  2351 ;; Hardware stack levels required when called: 2
  2352 ;; This function calls:
  2353 ;;		_lcd_putc
  2354 ;; This function is called by:
  2355 ;;		_main
  2356 ;; This function uses a non-reentrant model
  2357 ;;
  2358                           
  2359     02CA                     _lcd_puts:	
  2360                           ;psect for function _lcd_puts
  2361                           
  2362     02CA                     l84:	
  2363                           ;incstack = 0
  2364                           ; Regs used in _lcd_puts: [wreg-fsr0h+status,2+status,0+pclath+cstack]
  2365                           ;../Bai_1_GPIO.X/lcd.c: 85: void lcd_puts(const char *string_char);../Bai_1_GPIO.X/lcd.c
      +                          : 86: {;../Bai_1_GPIO.X/lcd.c: 87:     do
  2366                           
  2367     02CA                     l1555:
  2368                           
  2369                           ;../Bai_1_GPIO.X/lcd.c: 88:     {;../Bai_1_GPIO.X/lcd.c: 89:         lcd_putc(*string_ch
      +                          ar);
  2370     02CA  0877               	movf	lcd_puts@string_char,w
  2371     02CB  0084               	movwf	4
  2372     02CC  120A  118A  2003  120A  118A  	fcall	stringdir
  2373     02D1  120A  118A  22A5  120A  118A  	fcall	_lcd_putc
  2374     02D6                     l1557:
  2375                           
  2376                           ;../Bai_1_GPIO.X/lcd.c: 90:         string_char++;
  2377     02D6  3001               	movlw	1
  2378     02D7  07F7               	addwf	lcd_puts@string_char,f
  2379     02D8                     l1559:
  2380                           
  2381                           ;../Bai_1_GPIO.X/lcd.c: 91:     }
  2382     02D8  0877               	movf	lcd_puts@string_char,w
  2383     02D9  0084               	movwf	4
  2384     02DA  120A  118A  2003  120A  118A  	fcall	stringdir
  2385     02DF  3A00               	xorlw	0
  2386     02E0  1D03               	skipz
  2387     02E1  2AE3               	goto	u1511
  2388     02E2  2AE4               	goto	u1510
  2389     02E3                     u1511:
  2390     02E3  2ACA               	goto	l84
  2391     02E4                     u1510:
  2392     02E4                     l86:
  2393     02E4  0008               	return
  2394     02E5                     __end_of_lcd_puts:
  2395                           
  2396                           	psect	text11
  2397     02A5                     __ptext11:	
  2398 ;; *************** function _lcd_putc *****************
  2399 ;; Defined at:
  2400 ;;		line 66 in file "../Bai_1_GPIO.X/lcd.c"
  2401 ;; Parameters:    Size  Location     Type
  2402 ;;  charactor       1    wreg     unsigned char 
  2403 ;; Auto vars:     Size  Location     Type
  2404 ;;  charactor       1    6[COMMON] unsigned char 
  2405 ;; Return value:  Size  Location     Type
  2406 ;;                  1    wreg      void 
  2407 ;; Registers used:
  2408 ;;		wreg, status,2, status,0, pclath, cstack
  2409 ;; Tracked objects:
  2410 ;;		On entry : 0/0
  2411 ;;		On exit  : 0/0
  2412 ;;		Unchanged: 0/0
  2413 ;; Data sizes:     COMMON   BANK0   BANK1   BANK3   BANK2
  2414 ;;      Params:         0       0       0       0       0
  2415 ;;      Locals:         1       0       0       0       0
  2416 ;;      Temps:          0       0       0       0       0
  2417 ;;      Totals:         1       0       0       0       0
  2418 ;;Total ram usage:        1 bytes
  2419 ;; Hardware stack levels used: 1
  2420 ;; This function calls:
  2421 ;;		_lcd_wait_busy
  2422 ;;		_write_data
  2423 ;; This function is called by:
  2424 ;;		_lcd_puts
  2425 ;;		_putch
  2426 ;;		_lcd_custom_char
  2427 ;;		_lcd_write_cgram
  2428 ;; This function uses a non-reentrant model
  2429 ;;
  2430                           
  2431     02A5                     _lcd_putc:	
  2432                           ;psect for function _lcd_putc
  2433                           
  2434                           
  2435                           ;incstack = 0
  2436                           ; Regs used in _lcd_putc: [wreg+status,2+status,0+pclath+cstack]
  2437                           ;lcd_putc@charactor stored from wreg
  2438     02A5  00F6               	movwf	lcd_putc@charactor
  2439     02A6                     l1333:
  2440                           
  2441                           ;../Bai_1_GPIO.X/lcd.c: 66: void lcd_putc(unsigned char charactor);../Bai_1_GPIO.X/lcd.c
      +                          : 67: {;../Bai_1_GPIO.X/lcd.c: 68:     lcd_wait_busy();
  2442     02A6  120A  118A  2353  120A  118A  	fcall	_lcd_wait_busy
  2443     02AB                     l1335:
  2444                           
  2445                           ;../Bai_1_GPIO.X/lcd.c: 69:     RA4 = 1;
  2446     02AB  1283               	bcf	3,5	;RP0=0, select bank0
  2447     02AC  1303               	bcf	3,6	;RP1=0, select bank0
  2448     02AD  1605               	bsf	5,4	;volatile
  2449     02AE                     l1337:
  2450                           
  2451                           ;../Bai_1_GPIO.X/lcd.c: 70:     RA5 = 0;
  2452     02AE  1285               	bcf	5,5	;volatile
  2453     02AF                     l1339:
  2454                           
  2455                           ;../Bai_1_GPIO.X/lcd.c: 71:     RE0 = 0;
  2456     02AF  1009               	bcf	9,0	;volatile
  2457                           
  2458                           ;../Bai_1_GPIO.X/lcd.c: 73:     write_data(charactor);
  2459     02B0  0876               	movf	lcd_putc@charactor,w
  2460     02B1  120A  118A  2606  120A  118A  	fcall	_write_data
  2461     02B6                     l81:
  2462     02B6  0008               	return
  2463     02B7                     __end_of_lcd_putc:
  2464                           
  2465                           	psect	text12
  2466     04FA                     __ptext12:	
  2467 ;; *************** function _lcd_init *****************
  2468 ;; Defined at:
  2469 ;;		line 20 in file "../Bai_1_GPIO.X/lcd.c"
  2470 ;; Parameters:    Size  Location     Type
  2471 ;;		None
  2472 ;; Auto vars:     Size  Location     Type
  2473 ;;		None
  2474 ;; Return value:  Size  Location     Type
  2475 ;;                  1    wreg      void 
  2476 ;; Registers used:
  2477 ;;		wreg, status,2, status,0, pclath, cstack
  2478 ;; Tracked objects:
  2479 ;;		On entry : 0/0
  2480 ;;		On exit  : 0/0
  2481 ;;		Unchanged: 0/0
  2482 ;; Data sizes:     COMMON   BANK0   BANK1   BANK3   BANK2
  2483 ;;      Params:         0       0       0       0       0
  2484 ;;      Locals:         0       0       0       0       0
  2485 ;;      Temps:          0       0       0       0       0
  2486 ;;      Totals:         0       0       0       0       0
  2487 ;;Total ram usage:        0 bytes
  2488 ;; Hardware stack levels used: 1
  2489 ;; Hardware stack levels required when called: 1
  2490 ;; This function calls:
  2491 ;;		_lcd_command
  2492 ;;		_lcd_delay
  2493 ;;		_lcd_wait_busy
  2494 ;; This function is called by:
  2495 ;;		_main
  2496 ;; This function uses a non-reentrant model
  2497 ;;
  2498                           
  2499     04FA                     _lcd_init:	
  2500                           ;psect for function _lcd_init
  2501                           
  2502     04FA                     l1551:	
  2503                           ;incstack = 0
  2504                           ; Regs used in _lcd_init: [wreg+status,2+status,0+pclath+cstack]
  2505                           
  2506                           
  2507                           ;../Bai_1_GPIO.X/lcd.c: 22:     TRISE0 = 0;
  2508     04FA  1683               	bsf	3,5	;RP0=1, select bank1
  2509     04FB  1303               	bcf	3,6	;RP1=0, select bank1
  2510     04FC  1009               	bcf	9,0	;volatile
  2511                           
  2512                           ;../Bai_1_GPIO.X/lcd.c: 23:     TRISA4 = 0;
  2513     04FD  1205               	bcf	5,4	;volatile
  2514                           
  2515                           ;../Bai_1_GPIO.X/lcd.c: 24:     TRISA5 = 0;
  2516     04FE  1285               	bcf	5,5	;volatile
  2517                           
  2518                           ;../Bai_1_GPIO.X/lcd.c: 25:     TRISA3 = 0;
  2519     04FF  1185               	bcf	5,3	;volatile
  2520                           
  2521                           ;../Bai_1_GPIO.X/lcd.c: 26:     TRISA2 = 0;
  2522     0500  1105               	bcf	5,2	;volatile
  2523                           
  2524                           ;../Bai_1_GPIO.X/lcd.c: 27:     TRISA1 = 0;
  2525     0501  1085               	bcf	5,1	;volatile
  2526                           
  2527                           ;../Bai_1_GPIO.X/lcd.c: 28:     TRISA0 = 0;
  2528     0502  1005               	bcf	5,0	;volatile
  2529                           
  2530                           ;../Bai_1_GPIO.X/lcd.c: 30:     RE0 = 0;
  2531     0503  1283               	bcf	3,5	;RP0=0, select bank0
  2532     0504  1303               	bcf	3,6	;RP1=0, select bank0
  2533     0505  1009               	bcf	9,0	;volatile
  2534                           
  2535                           ;../Bai_1_GPIO.X/lcd.c: 31:     RA4 = 0;
  2536     0506  1205               	bcf	5,4	;volatile
  2537                           
  2538                           ;../Bai_1_GPIO.X/lcd.c: 32:     RA5 = 0;
  2539     0507  1285               	bcf	5,5	;volatile
  2540     0508                     l1553:
  2541                           
  2542                           ;../Bai_1_GPIO.X/lcd.c: 33:     lcd_delay(100);
  2543     0508  3064               	movlw	100
  2544     0509  00F0               	movwf	lcd_delay@time
  2545     050A  3000               	movlw	0
  2546     050B  00F1               	movwf	lcd_delay@time+1
  2547     050C  120A  118A  2236  120A  118A  	fcall	_lcd_delay
  2548                           
  2549                           ;../Bai_1_GPIO.X/lcd.c: 36:     lcd_command(0x30);
  2550     0511  3030               	movlw	48
  2551     0512  120A  118A  2283  120A  118A  	fcall	_lcd_command
  2552                           
  2553                           ;../Bai_1_GPIO.X/lcd.c: 37:     lcd_wait_busy();
  2554     0517  120A  118A  2353  120A  118A  	fcall	_lcd_wait_busy
  2555                           
  2556                           ;../Bai_1_GPIO.X/lcd.c: 38:     lcd_command(0x30);
  2557     051C  3030               	movlw	48
  2558     051D  120A  118A  2283  120A  118A  	fcall	_lcd_command
  2559                           
  2560                           ;../Bai_1_GPIO.X/lcd.c: 39:     lcd_wait_busy();
  2561     0522  120A  118A  2353  120A  118A  	fcall	_lcd_wait_busy
  2562                           
  2563                           ;../Bai_1_GPIO.X/lcd.c: 40:     lcd_command(0x30);
  2564     0527  3030               	movlw	48
  2565     0528  120A  118A  2283  120A  118A  	fcall	_lcd_command
  2566                           
  2567                           ;../Bai_1_GPIO.X/lcd.c: 41:     lcd_wait_busy();
  2568     052D  120A  118A  2353  120A  118A  	fcall	_lcd_wait_busy
  2569                           
  2570                           ;../Bai_1_GPIO.X/lcd.c: 42:     lcd_command(0x32);
  2571     0532  3032               	movlw	50
  2572     0533  120A  118A  2283  120A  118A  	fcall	_lcd_command
  2573                           
  2574                           ;../Bai_1_GPIO.X/lcd.c: 43:     lcd_wait_busy();
  2575     0538  120A  118A  2353  120A  118A  	fcall	_lcd_wait_busy
  2576                           
  2577                           ;../Bai_1_GPIO.X/lcd.c: 44:     lcd_delay(100);
  2578     053D  3064               	movlw	100
  2579     053E  00F0               	movwf	lcd_delay@time
  2580     053F  3000               	movlw	0
  2581     0540  00F1               	movwf	lcd_delay@time+1
  2582     0541  120A  118A  2236  120A  118A  	fcall	_lcd_delay
  2583                           
  2584                           ;../Bai_1_GPIO.X/lcd.c: 47:     lcd_command(0b00101000);
  2585     0546  3028               	movlw	40
  2586     0547  120A  118A  2283  120A  118A  	fcall	_lcd_command
  2587                           
  2588                           ;../Bai_1_GPIO.X/lcd.c: 48:     lcd_wait_busy();
  2589     054C  120A  118A  2353  120A  118A  	fcall	_lcd_wait_busy
  2590                           
  2591                           ;../Bai_1_GPIO.X/lcd.c: 49:     lcd_command(0b00001101 & 0b00001110);
  2592     0551  300C               	movlw	12
  2593     0552  120A  118A  2283  120A  118A  	fcall	_lcd_command
  2594                           
  2595                           ;../Bai_1_GPIO.X/lcd.c: 50:     lcd_wait_busy();
  2596     0557  120A  118A  2353  120A  118A  	fcall	_lcd_wait_busy
  2597                           
  2598                           ;../Bai_1_GPIO.X/lcd.c: 51:     lcd_command(0b00000110);
  2599     055C  3006               	movlw	6
  2600     055D  120A  118A  2283  120A  118A  	fcall	_lcd_command
  2601                           
  2602                           ;../Bai_1_GPIO.X/lcd.c: 52:     lcd_wait_busy();
  2603     0562  120A  118A  2353  120A  118A  	fcall	_lcd_wait_busy
  2604                           
  2605                           ;../Bai_1_GPIO.X/lcd.c: 53:     lcd_command(0b00000001);
  2606     0567  3001               	movlw	1
  2607     0568  120A  118A  2283  120A  118A  	fcall	_lcd_command
  2608                           
  2609                           ;../Bai_1_GPIO.X/lcd.c: 54:     lcd_delay(1000);
  2610     056D  30E8               	movlw	232
  2611     056E  00F0               	movwf	lcd_delay@time
  2612     056F  3003               	movlw	3
  2613     0570  00F1               	movwf	lcd_delay@time+1
  2614     0571  120A  118A  2236  120A  118A  	fcall	_lcd_delay
  2615     0576                     l78:
  2616     0576  0008               	return
  2617     0577                     __end_of_lcd_init:
  2618                           
  2619                           	psect	text13
  2620     0329                     __ptext13:	
  2621 ;; *************** function _lcd_gotoxy *****************
  2622 ;; Defined at:
  2623 ;;		line 223 in file "../Bai_1_GPIO.X/lcd.c"
  2624 ;; Parameters:    Size  Location     Type
  2625 ;;  col             1    wreg     unsigned char 
  2626 ;;  row             1    7[COMMON] unsigned char 
  2627 ;; Auto vars:     Size  Location     Type
  2628 ;;  col             1    8[COMMON] unsigned char 
  2629 ;;  address         1    9[COMMON] unsigned char 
  2630 ;; Return value:  Size  Location     Type
  2631 ;;                  1    wreg      void 
  2632 ;; Registers used:
  2633 ;;		wreg, fsr0l, fsr0h, status,2, status,0, pclath, cstack
  2634 ;; Tracked objects:
  2635 ;;		On entry : 0/0
  2636 ;;		On exit  : 0/0
  2637 ;;		Unchanged: 0/0
  2638 ;; Data sizes:     COMMON   BANK0   BANK1   BANK3   BANK2
  2639 ;;      Params:         1       0       0       0       0
  2640 ;;      Locals:         2       0       0       0       0
  2641 ;;      Temps:          0       0       0       0       0
  2642 ;;      Totals:         3       0       0       0       0
  2643 ;;Total ram usage:        3 bytes
  2644 ;; Hardware stack levels used: 1
  2645 ;; Hardware stack levels required when called: 2
  2646 ;; This function calls:
  2647 ;;		_lcd_command
  2648 ;;		_lcd_wait_busy
  2649 ;; This function is called by:
  2650 ;;		_main
  2651 ;;		_lcd_custom_char
  2652 ;;		_lcd_write_cgram
  2653 ;; This function uses a non-reentrant model
  2654 ;;
  2655                           
  2656     0329                     _lcd_gotoxy:	
  2657                           ;psect for function _lcd_gotoxy
  2658                           
  2659                           
  2660                           ;incstack = 0
  2661                           ; Regs used in _lcd_gotoxy: [wreg-fsr0h+status,2+status,0+pclath+cstack]
  2662                           ;lcd_gotoxy@col stored from wreg
  2663     0329  00F8               	movwf	lcd_gotoxy@col
  2664     032A                     l1567:
  2665                           
  2666                           ;../Bai_1_GPIO.X/lcd.c: 223: void lcd_gotoxy(unsigned char col, unsigned char row);../Ba
      +                          i_1_GPIO.X/lcd.c: 224: {;../Bai_1_GPIO.X/lcd.c: 225:     unsigned char address;;../Bai_1
      +                          _GPIO.X/lcd.c: 227:     switch (row)
  2667     032A  2B36               	goto	l1573
  2668     032B                     l1569:
  2669     032B  01F9               	clrf	lcd_gotoxy@address
  2670                           
  2671                           ;../Bai_1_GPIO.X/lcd.c: 230:         break;
  2672     032C  2B44               	goto	l1575
  2673     032D                     l112:	
  2674                           ;../Bai_1_GPIO.X/lcd.c: 231:     case 1: address = 0x40;
  2675                           
  2676     032D  3040               	movlw	64
  2677     032E  00F9               	movwf	lcd_gotoxy@address
  2678                           
  2679                           ;../Bai_1_GPIO.X/lcd.c: 232:         break;
  2680     032F  2B44               	goto	l1575
  2681     0330                     l113:	
  2682                           ;../Bai_1_GPIO.X/lcd.c: 233:     case 2: address = 0x14;
  2683                           
  2684     0330  3014               	movlw	20
  2685     0331  00F9               	movwf	lcd_gotoxy@address
  2686                           
  2687                           ;../Bai_1_GPIO.X/lcd.c: 234:         break;
  2688     0332  2B44               	goto	l1575
  2689     0333                     l114:	
  2690                           ;../Bai_1_GPIO.X/lcd.c: 235:     case 3: address = 0x54;
  2691                           
  2692     0333  3054               	movlw	84
  2693     0334  00F9               	movwf	lcd_gotoxy@address
  2694                           
  2695                           ;../Bai_1_GPIO.X/lcd.c: 236:         break;
  2696     0335  2B44               	goto	l1575
  2697     0336                     l1573:
  2698     0336  0877               	movf	lcd_gotoxy@row,w
  2699                           
  2700                           ; Switch size 1, requested type "simple"
  2701                           ; Number of cases is 4, Range of values is 0 to 3
  2702                           ; switch strategies available:
  2703                           ; Name         Instructions Cycles
  2704                           ; simple_byte           13     7 (average)
  2705                           ; direct_byte           20     8 (fixed)
  2706                           ; jumptable            260     6 (fixed)
  2707                           ;	Chosen strategy is simple_byte
  2708     0337  3A00               	xorlw	0	; case 0
  2709     0338  1903               	skipnz
  2710     0339  2B2B               	goto	l1569
  2711     033A  3A01               	xorlw	1	; case 1
  2712     033B  1903               	skipnz
  2713     033C  2B2D               	goto	l112
  2714     033D  3A03               	xorlw	3	; case 2
  2715     033E  1903               	skipnz
  2716     033F  2B30               	goto	l113
  2717     0340  3A01               	xorlw	1	; case 3
  2718     0341  1903               	skipnz
  2719     0342  2B33               	goto	l114
  2720     0343  2B2B               	goto	l1569
  2721     0344                     l1575:
  2722                           
  2723                           ;../Bai_1_GPIO.X/lcd.c: 241:     address += col;
  2724     0344  0878               	movf	lcd_gotoxy@col,w
  2725     0345  07F9               	addwf	lcd_gotoxy@address,f
  2726     0346                     l1577:
  2727                           
  2728                           ;../Bai_1_GPIO.X/lcd.c: 242:     lcd_command(0x80 | address);
  2729     0346  0879               	movf	lcd_gotoxy@address,w
  2730     0347  3880               	iorlw	128
  2731     0348  120A  118A  2283  120A  118A  	fcall	_lcd_command
  2732     034D                     l1579:
  2733                           
  2734                           ;../Bai_1_GPIO.X/lcd.c: 243:     lcd_wait_busy();
  2735     034D  120A  118A  2353  120A  118A  	fcall	_lcd_wait_busy
  2736     0352                     l116:
  2737     0352  0008               	return
  2738     0353                     __end_of_lcd_gotoxy:
  2739                           
  2740                           	psect	text14
  2741     0283                     __ptext14:	
  2742 ;; *************** function _lcd_command *****************
  2743 ;; Defined at:
  2744 ;;		line 105 in file "../Bai_1_GPIO.X/lcd.c"
  2745 ;; Parameters:    Size  Location     Type
  2746 ;;  _command        1    wreg     unsigned char 
  2747 ;; Auto vars:     Size  Location     Type
  2748 ;;  _command        1    6[COMMON] unsigned char 
  2749 ;; Return value:  Size  Location     Type
  2750 ;;                  1    wreg      void 
  2751 ;; Registers used:
  2752 ;;		wreg, status,2, status,0, pclath, cstack
  2753 ;; Tracked objects:
  2754 ;;		On entry : 0/0
  2755 ;;		On exit  : 0/0
  2756 ;;		Unchanged: 0/0
  2757 ;; Data sizes:     COMMON   BANK0   BANK1   BANK3   BANK2
  2758 ;;      Params:         0       0       0       0       0
  2759 ;;      Locals:         1       0       0       0       0
  2760 ;;      Temps:          0       0       0       0       0
  2761 ;;      Totals:         1       0       0       0       0
  2762 ;;Total ram usage:        1 bytes
  2763 ;; Hardware stack levels used: 1
  2764 ;; This function calls:
  2765 ;;		_lcd_wait_busy
  2766 ;;		_write_data
  2767 ;; This function is called by:
  2768 ;;		_lcd_init
  2769 ;;		_lcd_gotoxy
  2770 ;;		_lcd_custom_char
  2771 ;;		_lcd_write_cgram
  2772 ;; This function uses a non-reentrant model
  2773 ;;
  2774                           
  2775     0283                     _lcd_command:	
  2776                           ;psect for function _lcd_command
  2777                           
  2778                           
  2779                           ;incstack = 0
  2780                           ; Regs used in _lcd_command: [wreg+status,2+status,0+pclath+cstack]
  2781                           ;lcd_command@_command stored from wreg
  2782     0283  00F6               	movwf	lcd_command@_command
  2783     0284                     l1505:
  2784                           
  2785                           ;../Bai_1_GPIO.X/lcd.c: 105: void lcd_command(unsigned char _command);../Bai_1_GPIO.X/lc
      +                          d.c: 106: {;../Bai_1_GPIO.X/lcd.c: 107:     lcd_wait_busy();
  2786     0284  120A  118A  2353  120A  118A  	fcall	_lcd_wait_busy
  2787     0289                     l1507:
  2788                           
  2789                           ;../Bai_1_GPIO.X/lcd.c: 108:     RA4 = 0;
  2790     0289  1283               	bcf	3,5	;RP0=0, select bank0
  2791     028A  1303               	bcf	3,6	;RP1=0, select bank0
  2792     028B  1205               	bcf	5,4	;volatile
  2793     028C                     l1509:
  2794                           
  2795                           ;../Bai_1_GPIO.X/lcd.c: 109:     RA5 = 0;
  2796     028C  1285               	bcf	5,5	;volatile
  2797                           
  2798                           ;../Bai_1_GPIO.X/lcd.c: 110:     write_data(_command);
  2799     028D  0876               	movf	lcd_command@_command,w
  2800     028E  120A  118A  2606  120A  118A  	fcall	_write_data
  2801     0293                     l89:
  2802     0293  0008               	return
  2803     0294                     __end_of_lcd_command:
  2804                           
  2805                           	psect	text15
  2806     0253                     __ptext15:	
  2807 ;; *************** function _lcd_clear *****************
  2808 ;; Defined at:
  2809 ;;		line 120 in file "../Bai_1_GPIO.X/lcd.c"
  2810 ;; Parameters:    Size  Location     Type
  2811 ;;		None
  2812 ;; Auto vars:     Size  Location     Type
  2813 ;;		None
  2814 ;; Return value:  Size  Location     Type
  2815 ;;                  1    wreg      void 
  2816 ;; Registers used:
  2817 ;;		wreg, status,2, status,0, pclath, cstack
  2818 ;; Tracked objects:
  2819 ;;		On entry : 0/0
  2820 ;;		On exit  : 0/0
  2821 ;;		Unchanged: 0/0
  2822 ;; Data sizes:     COMMON   BANK0   BANK1   BANK3   BANK2
  2823 ;;      Params:         0       0       0       0       0
  2824 ;;      Locals:         0       0       0       0       0
  2825 ;;      Temps:          0       0       0       0       0
  2826 ;;      Totals:         0       0       0       0       0
  2827 ;;Total ram usage:        0 bytes
  2828 ;; Hardware stack levels used: 1
  2829 ;; Hardware stack levels required when called: 2
  2830 ;; This function calls:
  2831 ;;		_lcd_wait_busy
  2832 ;;		_write_data
  2833 ;; This function is called by:
  2834 ;;		_main
  2835 ;; This function uses a non-reentrant model
  2836 ;;
  2837                           
  2838     0253                     _lcd_clear:	
  2839                           ;psect for function _lcd_clear
  2840                           
  2841     0253                     l1561:	
  2842                           ;incstack = 0
  2843                           ; Regs used in _lcd_clear: [wreg+status,2+status,0+pclath+cstack]
  2844                           
  2845                           
  2846                           ;../Bai_1_GPIO.X/lcd.c: 122:     lcd_wait_busy();
  2847     0253  120A  118A  2353  120A  118A  	fcall	_lcd_wait_busy
  2848     0258                     l1563:
  2849                           
  2850                           ;../Bai_1_GPIO.X/lcd.c: 123:     RA4 = 0;
  2851     0258  1283               	bcf	3,5	;RP0=0, select bank0
  2852     0259  1303               	bcf	3,6	;RP1=0, select bank0
  2853     025A  1205               	bcf	5,4	;volatile
  2854     025B                     l1565:
  2855                           
  2856                           ;../Bai_1_GPIO.X/lcd.c: 124:     RA5 = 0;
  2857     025B  1285               	bcf	5,5	;volatile
  2858                           
  2859                           ;../Bai_1_GPIO.X/lcd.c: 125:     write_data(0b00000001);
  2860     025C  3001               	movlw	1
  2861     025D  120A  118A  2606  120A  118A  	fcall	_write_data
  2862     0262                     l92:
  2863     0262  0008               	return
  2864     0263                     __end_of_lcd_clear:
  2865                           
  2866                           	psect	text16
  2867     0606                     __ptext16:	
  2868 ;; *************** function _write_data *****************
  2869 ;; Defined at:
  2870 ;;		line 167 in file "../Bai_1_GPIO.X/lcd.c"
  2871 ;; Parameters:    Size  Location     Type
  2872 ;;  _data           1    wreg     unsigned char 
  2873 ;; Auto vars:     Size  Location     Type
  2874 ;;  _data           1    3[COMMON] unsigned char 
  2875 ;;  L_data          1    5[COMMON] unsigned char 
  2876 ;;  H_data          1    4[COMMON] unsigned char 
  2877 ;; Return value:  Size  Location     Type
  2878 ;;                  1    wreg      void 
  2879 ;; Registers used:
  2880 ;;		wreg, status,2, status,0, pclath, cstack
  2881 ;; Tracked objects:
  2882 ;;		On entry : 0/0
  2883 ;;		On exit  : 0/0
  2884 ;;		Unchanged: 0/0
  2885 ;; Data sizes:     COMMON   BANK0   BANK1   BANK3   BANK2
  2886 ;;      Params:         0       0       0       0       0
  2887 ;;      Locals:         3       0       0       0       0
  2888 ;;      Temps:          1       0       0       0       0
  2889 ;;      Totals:         4       0       0       0       0
  2890 ;;Total ram usage:        4 bytes
  2891 ;; Hardware stack levels used: 1
  2892 ;; This function calls:
  2893 ;;		_lcd_delay
  2894 ;; This function is called by:
  2895 ;;		_lcd_putc
  2896 ;;		_lcd_command
  2897 ;;		_lcd_clear
  2898 ;; This function uses a non-reentrant model
  2899 ;;
  2900                           
  2901     0606                     _write_data:	
  2902                           ;psect for function _write_data
  2903                           
  2904                           
  2905                           ;incstack = 0
  2906                           ; Regs used in _write_data: [wreg+status,2+status,0+pclath+cstack]
  2907                           ;write_data@_data stored from wreg
  2908     0606  00F3               	movwf	write_data@_data
  2909     0607                     l1293:
  2910     0607  01F5               	clrf	write_data@L_data
  2911     0608                     l1295:
  2912                           
  2913                           ;../Bai_1_GPIO.X/lcd.c: 171:     H_data = _data & 0xf0;
  2914     0608  0873               	movf	write_data@_data,w
  2915     0609  00F4               	movwf	write_data@H_data
  2916     060A                     l1297:
  2917     060A  30F0               	movlw	240
  2918     060B  05F4               	andwf	write_data@H_data,f
  2919     060C                     l1299:
  2920                           
  2921                           ;../Bai_1_GPIO.X/lcd.c: 172:     L_data = (_data << 4)&0xf0;
  2922     060C  0873               	movf	write_data@_data,w
  2923     060D  00F2               	movwf	??_write_data
  2924     060E  3003               	movlw	3
  2925     060F                     u845:
  2926     060F  1003               	clrc
  2927     0610  0DF2               	rlf	??_write_data,f
  2928     0611  3EFF               	addlw	-1
  2929     0612  1D03               	skipz
  2930     0613  2E0F               	goto	u845
  2931     0614  1003               	clrc
  2932     0615  0D72               	rlf	??_write_data,w
  2933     0616  00F5               	movwf	write_data@L_data
  2934     0617                     l1301:
  2935     0617  30F0               	movlw	240
  2936     0618  05F5               	andwf	write_data@L_data,f
  2937     0619                     l1303:
  2938                           
  2939                           ;../Bai_1_GPIO.X/lcd.c: 174:     RE0 = 0;
  2940     0619  1283               	bcf	3,5	;RP0=0, select bank0
  2941     061A  1303               	bcf	3,6	;RP1=0, select bank0
  2942     061B  1009               	bcf	9,0	;volatile
  2943     061C                     l1305:
  2944                           
  2945                           ;../Bai_1_GPIO.X/lcd.c: 176:     RA3 = (H_data >> 7)&1;
  2946     061C  0874               	movf	write_data@H_data,w
  2947     061D  00F2               	movwf	??_write_data
  2948     061E  3007               	movlw	7
  2949     061F                     u855:
  2950     061F  1003               	clrc
  2951     0620  0CF2               	rrf	??_write_data,f
  2952     0621  3EFF               	addlw	-1
  2953     0622  1D03               	skipz
  2954     0623  2E1F               	goto	u855
  2955     0624  1872               	btfsc	??_write_data,0
  2956     0625  2E27               	goto	u861
  2957     0626  2E2B               	goto	u860
  2958     0627                     u861:
  2959     0627  1283               	bcf	3,5	;RP0=0, select bank0
  2960     0628  1303               	bcf	3,6	;RP1=0, select bank0
  2961     0629  1585               	bsf	5,3	;volatile
  2962     062A  2E2E               	goto	u874
  2963     062B                     u860:
  2964     062B  1283               	bcf	3,5	;RP0=0, select bank0
  2965     062C  1303               	bcf	3,6	;RP1=0, select bank0
  2966     062D  1185               	bcf	5,3	;volatile
  2967     062E                     u874:
  2968     062E                     l1307:
  2969                           
  2970                           ;../Bai_1_GPIO.X/lcd.c: 177:     RA2 = (H_data >> 6)&1;
  2971     062E  0874               	movf	write_data@H_data,w
  2972     062F  00F2               	movwf	??_write_data
  2973     0630  3006               	movlw	6
  2974     0631                     u885:
  2975     0631  1003               	clrc
  2976     0632  0CF2               	rrf	??_write_data,f
  2977     0633  3EFF               	addlw	-1
  2978     0634  1D03               	skipz
  2979     0635  2E31               	goto	u885
  2980     0636  1872               	btfsc	??_write_data,0
  2981     0637  2E39               	goto	u891
  2982     0638  2E3D               	goto	u890
  2983     0639                     u891:
  2984     0639  1283               	bcf	3,5	;RP0=0, select bank0
  2985     063A  1303               	bcf	3,6	;RP1=0, select bank0
  2986     063B  1505               	bsf	5,2	;volatile
  2987     063C  2E40               	goto	u904
  2988     063D                     u890:
  2989     063D  1283               	bcf	3,5	;RP0=0, select bank0
  2990     063E  1303               	bcf	3,6	;RP1=0, select bank0
  2991     063F  1105               	bcf	5,2	;volatile
  2992     0640                     u904:
  2993     0640                     l1309:
  2994                           
  2995                           ;../Bai_1_GPIO.X/lcd.c: 178:     RA1 = (H_data >> 5)&1;
  2996     0640  0874               	movf	write_data@H_data,w
  2997     0641  00F2               	movwf	??_write_data
  2998     0642  3005               	movlw	5
  2999     0643                     u915:
  3000     0643  1003               	clrc
  3001     0644  0CF2               	rrf	??_write_data,f
  3002     0645  3EFF               	addlw	-1
  3003     0646  1D03               	skipz
  3004     0647  2E43               	goto	u915
  3005     0648  1872               	btfsc	??_write_data,0
  3006     0649  2E4B               	goto	u921
  3007     064A  2E4F               	goto	u920
  3008     064B                     u921:
  3009     064B  1283               	bcf	3,5	;RP0=0, select bank0
  3010     064C  1303               	bcf	3,6	;RP1=0, select bank0
  3011     064D  1485               	bsf	5,1	;volatile
  3012     064E  2E52               	goto	u934
  3013     064F                     u920:
  3014     064F  1283               	bcf	3,5	;RP0=0, select bank0
  3015     0650  1303               	bcf	3,6	;RP1=0, select bank0
  3016     0651  1085               	bcf	5,1	;volatile
  3017     0652                     u934:
  3018     0652                     l1311:
  3019                           
  3020                           ;../Bai_1_GPIO.X/lcd.c: 179:     RA0 = (H_data >> 4)&1;
  3021     0652  0874               	movf	write_data@H_data,w
  3022     0653  00F2               	movwf	??_write_data
  3023     0654  3004               	movlw	4
  3024     0655                     u945:
  3025     0655  1003               	clrc
  3026     0656  0CF2               	rrf	??_write_data,f
  3027     0657  3EFF               	addlw	-1
  3028     0658  1D03               	skipz
  3029     0659  2E55               	goto	u945
  3030     065A  1872               	btfsc	??_write_data,0
  3031     065B  2E5D               	goto	u951
  3032     065C  2E61               	goto	u950
  3033     065D                     u951:
  3034     065D  1283               	bcf	3,5	;RP0=0, select bank0
  3035     065E  1303               	bcf	3,6	;RP1=0, select bank0
  3036     065F  1405               	bsf	5,0	;volatile
  3037     0660  2E64               	goto	u964
  3038     0661                     u950:
  3039     0661  1283               	bcf	3,5	;RP0=0, select bank0
  3040     0662  1303               	bcf	3,6	;RP1=0, select bank0
  3041     0663  1005               	bcf	5,0	;volatile
  3042     0664                     u964:
  3043     0664                     l1313:
  3044                           
  3045                           ;../Bai_1_GPIO.X/lcd.c: 181:     RE0 = 1;
  3046     0664  1409               	bsf	9,0	;volatile
  3047     0665                     l1315:
  3048                           
  3049                           ;../Bai_1_GPIO.X/lcd.c: 182:     RE0 = 0;
  3050     0665  1009               	bcf	9,0	;volatile
  3051     0666                     l1317:
  3052                           
  3053                           ;../Bai_1_GPIO.X/lcd.c: 183:     lcd_delay(10);
  3054     0666  300A               	movlw	10
  3055     0667  00F0               	movwf	lcd_delay@time
  3056     0668  3000               	movlw	0
  3057     0669  00F1               	movwf	lcd_delay@time+1
  3058     066A  120A  118A  2236  120A  118A  	fcall	_lcd_delay
  3059     066F                     l1319:
  3060                           
  3061                           ;../Bai_1_GPIO.X/lcd.c: 185:     RA3 = (L_data >> 7)&1;
  3062     066F  0875               	movf	write_data@L_data,w
  3063     0670  00F2               	movwf	??_write_data
  3064     0671  3007               	movlw	7
  3065     0672                     u975:
  3066     0672  1003               	clrc
  3067     0673  0CF2               	rrf	??_write_data,f
  3068     0674  3EFF               	addlw	-1
  3069     0675  1D03               	skipz
  3070     0676  2E72               	goto	u975
  3071     0677  1872               	btfsc	??_write_data,0
  3072     0678  2E7A               	goto	u981
  3073     0679  2E7E               	goto	u980
  3074     067A                     u981:
  3075     067A  1283               	bcf	3,5	;RP0=0, select bank0
  3076     067B  1303               	bcf	3,6	;RP1=0, select bank0
  3077     067C  1585               	bsf	5,3	;volatile
  3078     067D  2E81               	goto	u994
  3079     067E                     u980:
  3080     067E  1283               	bcf	3,5	;RP0=0, select bank0
  3081     067F  1303               	bcf	3,6	;RP1=0, select bank0
  3082     0680  1185               	bcf	5,3	;volatile
  3083     0681                     u994:
  3084     0681                     l1321:
  3085                           
  3086                           ;../Bai_1_GPIO.X/lcd.c: 186:     RA2 = (L_data >> 6)&1;
  3087     0681  0875               	movf	write_data@L_data,w
  3088     0682  00F2               	movwf	??_write_data
  3089     0683  3006               	movlw	6
  3090     0684                     u1005:
  3091     0684  1003               	clrc
  3092     0685  0CF2               	rrf	??_write_data,f
  3093     0686  3EFF               	addlw	-1
  3094     0687  1D03               	skipz
  3095     0688  2E84               	goto	u1005
  3096     0689  1872               	btfsc	??_write_data,0
  3097     068A  2E8C               	goto	u1011
  3098     068B  2E90               	goto	u1010
  3099     068C                     u1011:
  3100     068C  1283               	bcf	3,5	;RP0=0, select bank0
  3101     068D  1303               	bcf	3,6	;RP1=0, select bank0
  3102     068E  1505               	bsf	5,2	;volatile
  3103     068F  2E93               	goto	u1024
  3104     0690                     u1010:
  3105     0690  1283               	bcf	3,5	;RP0=0, select bank0
  3106     0691  1303               	bcf	3,6	;RP1=0, select bank0
  3107     0692  1105               	bcf	5,2	;volatile
  3108     0693                     u1024:
  3109     0693                     l1323:
  3110                           
  3111                           ;../Bai_1_GPIO.X/lcd.c: 187:     RA1 = (L_data >> 5)&1;
  3112     0693  0875               	movf	write_data@L_data,w
  3113     0694  00F2               	movwf	??_write_data
  3114     0695  3005               	movlw	5
  3115     0696                     u1035:
  3116     0696  1003               	clrc
  3117     0697  0CF2               	rrf	??_write_data,f
  3118     0698  3EFF               	addlw	-1
  3119     0699  1D03               	skipz
  3120     069A  2E96               	goto	u1035
  3121     069B  1872               	btfsc	??_write_data,0
  3122     069C  2E9E               	goto	u1041
  3123     069D  2EA2               	goto	u1040
  3124     069E                     u1041:
  3125     069E  1283               	bcf	3,5	;RP0=0, select bank0
  3126     069F  1303               	bcf	3,6	;RP1=0, select bank0
  3127     06A0  1485               	bsf	5,1	;volatile
  3128     06A1  2EA5               	goto	u1054
  3129     06A2                     u1040:
  3130     06A2  1283               	bcf	3,5	;RP0=0, select bank0
  3131     06A3  1303               	bcf	3,6	;RP1=0, select bank0
  3132     06A4  1085               	bcf	5,1	;volatile
  3133     06A5                     u1054:
  3134     06A5                     l1325:
  3135                           
  3136                           ;../Bai_1_GPIO.X/lcd.c: 188:     RA0 = (L_data >> 4)&1;
  3137     06A5  0875               	movf	write_data@L_data,w
  3138     06A6  00F2               	movwf	??_write_data
  3139     06A7  3004               	movlw	4
  3140     06A8                     u1065:
  3141     06A8  1003               	clrc
  3142     06A9  0CF2               	rrf	??_write_data,f
  3143     06AA  3EFF               	addlw	-1
  3144     06AB  1D03               	skipz
  3145     06AC  2EA8               	goto	u1065
  3146     06AD  1872               	btfsc	??_write_data,0
  3147     06AE  2EB0               	goto	u1071
  3148     06AF  2EB4               	goto	u1070
  3149     06B0                     u1071:
  3150     06B0  1283               	bcf	3,5	;RP0=0, select bank0
  3151     06B1  1303               	bcf	3,6	;RP1=0, select bank0
  3152     06B2  1405               	bsf	5,0	;volatile
  3153     06B3  2EB7               	goto	u1084
  3154     06B4                     u1070:
  3155     06B4  1283               	bcf	3,5	;RP0=0, select bank0
  3156     06B5  1303               	bcf	3,6	;RP1=0, select bank0
  3157     06B6  1005               	bcf	5,0	;volatile
  3158     06B7                     u1084:
  3159     06B7                     l1327:
  3160                           
  3161                           ;../Bai_1_GPIO.X/lcd.c: 190:     RE0 = 1;
  3162     06B7  1409               	bsf	9,0	;volatile
  3163     06B8                     l1329:
  3164                           
  3165                           ;../Bai_1_GPIO.X/lcd.c: 191:     RE0 = 0;
  3166     06B8  1009               	bcf	9,0	;volatile
  3167     06B9                     l1331:
  3168                           
  3169                           ;../Bai_1_GPIO.X/lcd.c: 192:     lcd_delay(10);
  3170     06B9  300A               	movlw	10
  3171     06BA  00F0               	movwf	lcd_delay@time
  3172     06BB  3000               	movlw	0
  3173     06BC  00F1               	movwf	lcd_delay@time+1
  3174     06BD  120A  118A  2236  120A  118A  	fcall	_lcd_delay
  3175     06C2                     l100:
  3176     06C2  0008               	return
  3177     06C3                     __end_of_write_data:
  3178                           
  3179                           	psect	text17
  3180     0353                     __ptext17:	
  3181 ;; *************** function _lcd_wait_busy *****************
  3182 ;; Defined at:
  3183 ;;		line 133 in file "../Bai_1_GPIO.X/lcd.c"
  3184 ;; Parameters:    Size  Location     Type
  3185 ;;		None
  3186 ;; Auto vars:     Size  Location     Type
  3187 ;;  busy            1    2[COMMON] unsigned char 
  3188 ;; Return value:  Size  Location     Type
  3189 ;;                  1    wreg      void 
  3190 ;; Registers used:
  3191 ;;		wreg, status,2, status,0, pclath, cstack
  3192 ;; Tracked objects:
  3193 ;;		On entry : 0/0
  3194 ;;		On exit  : 0/0
  3195 ;;		Unchanged: 0/0
  3196 ;; Data sizes:     COMMON   BANK0   BANK1   BANK3   BANK2
  3197 ;;      Params:         0       0       0       0       0
  3198 ;;      Locals:         1       0       0       0       0
  3199 ;;      Temps:          0       0       0       0       0
  3200 ;;      Totals:         1       0       0       0       0
  3201 ;;Total ram usage:        1 bytes
  3202 ;; Hardware stack levels used: 1
  3203 ;; This function calls:
  3204 ;;		_lcd_delay
  3205 ;; This function is called by:
  3206 ;;		_lcd_init
  3207 ;;		_lcd_putc
  3208 ;;		_lcd_command
  3209 ;;		_lcd_clear
  3210 ;;		_lcd_gotoxy
  3211 ;; This function uses a non-reentrant model
  3212 ;;
  3213                           
  3214     0353                     _lcd_wait_busy:	
  3215                           ;psect for function _lcd_wait_busy
  3216                           
  3217     0353                     l1277:	
  3218                           ;incstack = 0
  3219                           ; Regs used in _lcd_wait_busy: [wreg+status,2+status,0+pclath+cstack]
  3220                           
  3221                           
  3222                           ;../Bai_1_GPIO.X/lcd.c: 135:     unsigned char busy;;../Bai_1_GPIO.X/lcd.c: 137:     TRI
      +                          SA3 = 1;
  3223     0353  1683               	bsf	3,5	;RP0=1, select bank1
  3224     0354  1303               	bcf	3,6	;RP1=0, select bank1
  3225     0355  1585               	bsf	5,3	;volatile
  3226                           
  3227                           ;../Bai_1_GPIO.X/lcd.c: 139:     RA5 = 1;
  3228     0356  1283               	bcf	3,5	;RP0=0, select bank0
  3229     0357  1303               	bcf	3,6	;RP1=0, select bank0
  3230     0358  1685               	bsf	5,5	;volatile
  3231                           
  3232                           ;../Bai_1_GPIO.X/lcd.c: 140:     RA4 = 0;
  3233     0359  1205               	bcf	5,4	;volatile
  3234     035A                     l95:	
  3235                           ;../Bai_1_GPIO.X/lcd.c: 142:     do
  3236                           
  3237                           
  3238                           ;../Bai_1_GPIO.X/lcd.c: 143:     {;../Bai_1_GPIO.X/lcd.c: 144:         RE0 = 1;
  3239     035A  1409               	bsf	9,0	;volatile
  3240     035B                     l1279:
  3241                           
  3242                           ;../Bai_1_GPIO.X/lcd.c: 145:         lcd_delay(10);
  3243     035B  300A               	movlw	10
  3244     035C  00F0               	movwf	lcd_delay@time
  3245     035D  3000               	movlw	0
  3246     035E  00F1               	movwf	lcd_delay@time+1
  3247     035F  120A  118A  2236  120A  118A  	fcall	_lcd_delay
  3248     0364                     l1281:
  3249                           
  3250                           ;../Bai_1_GPIO.X/lcd.c: 146:         busy = RA3;
  3251     0364  3000               	movlw	0
  3252     0365  1283               	bcf	3,5	;RP0=0, select bank0
  3253     0366  1303               	bcf	3,6	;RP1=0, select bank0
  3254     0367  1985               	btfsc	5,3	;volatile
  3255     0368  3001               	movlw	1
  3256     0369  00F2               	movwf	lcd_wait_busy@busy
  3257     036A                     l1283:
  3258                           
  3259                           ;../Bai_1_GPIO.X/lcd.c: 147:         RE0 = 0;
  3260     036A  1009               	bcf	9,0	;volatile
  3261     036B                     l1285:
  3262                           
  3263                           ;../Bai_1_GPIO.X/lcd.c: 149:         RE0 = 1;
  3264     036B  1409               	bsf	9,0	;volatile
  3265     036C                     l1287:
  3266                           
  3267                           ;../Bai_1_GPIO.X/lcd.c: 150:         lcd_delay(10);
  3268     036C  300A               	movlw	10
  3269     036D  00F0               	movwf	lcd_delay@time
  3270     036E  3000               	movlw	0
  3271     036F  00F1               	movwf	lcd_delay@time+1
  3272     0370  120A  118A  2236  120A  118A  	fcall	_lcd_delay
  3273     0375                     l1289:
  3274                           
  3275                           ;../Bai_1_GPIO.X/lcd.c: 151:         RE0 = 0;
  3276     0375  1283               	bcf	3,5	;RP0=0, select bank0
  3277     0376  1303               	bcf	3,6	;RP1=0, select bank0
  3278     0377  1009               	bcf	9,0	;volatile
  3279     0378                     l1291:
  3280                           
  3281                           ;../Bai_1_GPIO.X/lcd.c: 152:     }
  3282     0378  0872               	movf	lcd_wait_busy@busy,w
  3283     0379  1D03               	btfss	3,2
  3284     037A  2B7C               	goto	u831
  3285     037B  2B7D               	goto	u830
  3286     037C                     u831:
  3287     037C  2B5A               	goto	l95
  3288     037D                     u830:
  3289     037D                     l96:
  3290                           
  3291                           ;../Bai_1_GPIO.X/lcd.c: 155:     TRISA3 = 0;
  3292     037D  1683               	bsf	3,5	;RP0=1, select bank1
  3293     037E  1303               	bcf	3,6	;RP1=0, select bank1
  3294     037F  1185               	bcf	5,3	;volatile
  3295     0380                     l97:
  3296     0380  0008               	return
  3297     0381                     __end_of_lcd_wait_busy:
  3298                           
  3299                           	psect	text18
  3300     0236                     __ptext18:	
  3301 ;; *************** function _lcd_delay *****************
  3302 ;; Defined at:
  3303 ;;		line 204 in file "../Bai_1_GPIO.X/lcd.c"
  3304 ;; Parameters:    Size  Location     Type
  3305 ;;  time            2    0[COMMON] unsigned int 
  3306 ;; Auto vars:     Size  Location     Type
  3307 ;;		None
  3308 ;; Return value:  Size  Location     Type
  3309 ;;                  1    wreg      void 
  3310 ;; Registers used:
  3311 ;;		wreg, status,2, status,0
  3312 ;; Tracked objects:
  3313 ;;		On entry : 0/0
  3314 ;;		On exit  : 0/0
  3315 ;;		Unchanged: 0/0
  3316 ;; Data sizes:     COMMON   BANK0   BANK1   BANK3   BANK2
  3317 ;;      Params:         2       0       0       0       0
  3318 ;;      Locals:         0       0       0       0       0
  3319 ;;      Temps:          0       0       0       0       0
  3320 ;;      Totals:         2       0       0       0       0
  3321 ;;Total ram usage:        2 bytes
  3322 ;; Hardware stack levels used: 1
  3323 ;; This function calls:
  3324 ;;		Nothing
  3325 ;; This function is called by:
  3326 ;;		_lcd_init
  3327 ;;		_lcd_wait_busy
  3328 ;;		_write_data
  3329 ;; This function uses a non-reentrant model
  3330 ;;
  3331                           
  3332     0236                     _lcd_delay:	
  3333                           ;psect for function _lcd_delay
  3334                           
  3335     0236                     l1271:	
  3336                           ;incstack = 0
  3337                           ; Regs used in _lcd_delay: [wreg+status,2+status,0]
  3338                           
  3339                           
  3340                           ;../Bai_1_GPIO.X/lcd.c: 204: void lcd_delay(unsigned int time);../Bai_1_GPIO.X/lcd.c: 20
      +                          5: {;../Bai_1_GPIO.X/lcd.c: 206:     while (time)
  3341     0236  2A3D               	goto	l1275
  3342     0237                     l1273:
  3343                           
  3344                           ;../Bai_1_GPIO.X/lcd.c: 207:     {;../Bai_1_GPIO.X/lcd.c: 208:         time--;
  3345     0237  3001               	movlw	1
  3346     0238  02F0               	subwf	lcd_delay@time,f
  3347     0239  3000               	movlw	0
  3348     023A  1C03               	skipc
  3349     023B  03F1               	decf	lcd_delay@time+1,f
  3350     023C  02F1               	subwf	lcd_delay@time+1,f
  3351     023D                     l1275:
  3352                           
  3353                           ;../Bai_1_GPIO.X/lcd.c: 206:     while (time)
  3354     023D  0870               	movf	lcd_delay@time,w
  3355     023E  0471               	iorwf	lcd_delay@time+1,w
  3356     023F  1D03               	btfss	3,2
  3357     0240  2A42               	goto	u821
  3358     0241  2A43               	goto	u820
  3359     0242                     u821:
  3360     0242  2A37               	goto	l1273
  3361     0243                     u820:
  3362     0243                     l106:
  3363     0243  0008               	return
  3364     0244                     __end_of_lcd_delay:
  3365                           
  3366                           	psect	text19
  3367     0306                     __ptext19:	
  3368 ;; *************** function _isButtonNumber *****************
  3369 ;; Defined at:
  3370 ;;		line 11 in file "../Bai_1_GPIO.X/main.c"
  3371 ;; Parameters:    Size  Location     Type
  3372 ;;		None
  3373 ;; Auto vars:     Size  Location     Type
  3374 ;;  i               1    3[COMMON] unsigned char 
  3375 ;; Return value:  Size  Location     Type
  3376 ;;                  1    wreg      unsigned char 
  3377 ;; Registers used:
  3378 ;;		wreg, fsr0l, fsr0h, status,2, status,0
  3379 ;; Tracked objects:
  3380 ;;		On entry : 0/0
  3381 ;;		On exit  : 0/0
  3382 ;;		Unchanged: 0/0
  3383 ;; Data sizes:     COMMON   BANK0   BANK1   BANK3   BANK2
  3384 ;;      Params:         0       0       0       0       0
  3385 ;;      Locals:         1       0       0       0       0
  3386 ;;      Temps:          3       0       0       0       0
  3387 ;;      Totals:         4       0       0       0       0
  3388 ;;Total ram usage:        4 bytes
  3389 ;; Hardware stack levels used: 1
  3390 ;; This function calls:
  3391 ;;		Nothing
  3392 ;; This function is called by:
  3393 ;;		_main
  3394 ;; This function uses a non-reentrant model
  3395 ;;
  3396                           
  3397     0306                     _isButtonNumber:	
  3398                           ;psect for function _isButtonNumber
  3399                           
  3400     0306                     l1581:	
  3401                           ;incstack = 0
  3402                           ; Regs used in _isButtonNumber: [wreg-fsr0h+status,2+status,0]
  3403                           
  3404                           
  3405                           ;../Bai_1_GPIO.X/main.c: 12:     unsigned char i;;../Bai_1_GPIO.X/main.c: 13:     for (i
      +                           = 0; i <= 15; i++)
  3406     0306  01F3               	clrf	isButtonNumber@i
  3407     0307                     l1587:
  3408                           
  3409                           ;../Bai_1_GPIO.X/main.c: 14:         if (key_code[i] == 1) {
  3410     0307  0873               	movf	isButtonNumber@i,w
  3411     0308  00F0               	movwf	??_isButtonNumber
  3412     0309  0770               	addwf	??_isButtonNumber,w
  3413     030A  3E20               	addlw	(low (_key_code| 0))& (0+255)
  3414     030B  0084               	movwf	4
  3415     030C  1383               	bcf	3,7	;select IRP bank0
  3416     030D  0800               	movf	0,w
  3417     030E  00F1               	movwf	??_isButtonNumber+1
  3418     030F  0A84               	incf	4,f
  3419     0310  0800               	movf	0,w
  3420     0311  00F2               	movwf	??_isButtonNumber+2
  3421     0312  0371               	decf	??_isButtonNumber+1,w
  3422     0313  0472               	iorwf	??_isButtonNumber+2,w
  3423     0314  1D03               	btfss	3,2
  3424     0315  2B17               	goto	u1521
  3425     0316  2B18               	goto	u1520
  3426     0317                     u1521:
  3427     0317  2B20               	goto	l1593
  3428     0318                     u1520:
  3429     0318                     l1589:
  3430                           
  3431                           ;../Bai_1_GPIO.X/main.c: 15:             numberValue = arrayMapOfNumber[i];
  3432     0318  0873               	movf	isButtonNumber@i,w
  3433     0319  3EC0               	addlw	(low (_arrayMapOfNumber| 0))& (0+255)
  3434     031A  0084               	movwf	4
  3435     031B  0800               	movf	0,w
  3436     031C  1283               	bcf	3,5	;RP0=0, select bank0
  3437     031D  1303               	bcf	3,6	;RP1=0, select bank0
  3438     031E  00C5               	movwf	_numberValue
  3439     031F  2B28               	goto	l159
  3440     0320                     l1593:
  3441     0320  3001               	movlw	1
  3442     0321  07F3               	addwf	isButtonNumber@i,f
  3443     0322                     l1595:
  3444     0322  3010               	movlw	16
  3445     0323  0273               	subwf	isButtonNumber@i,w
  3446     0324  1C03               	skipc
  3447     0325  2B27               	goto	u1531
  3448     0326  2B28               	goto	u1530
  3449     0327                     u1531:
  3450     0327  2B07               	goto	l1587
  3451     0328                     u1530:
  3452     0328                     l159:
  3453     0328  0008               	return
  3454     0329                     __end_of_isButtonNumber:
  3455                           
  3456                           	psect	text20
  3457     022D                     __ptext20:	
  3458 ;; *************** function _init_key_matrix *****************
  3459 ;; Defined at:
  3460 ;;		line 11 in file "../Bai_1_GPIO.X/button.c"
  3461 ;; Parameters:    Size  Location     Type
  3462 ;;		None
  3463 ;; Auto vars:     Size  Location     Type
  3464 ;;		None
  3465 ;; Return value:  Size  Location     Type
  3466 ;;                  1    wreg      void 
  3467 ;; Registers used:
  3468 ;;		None
  3469 ;; Tracked objects:
  3470 ;;		On entry : 0/0
  3471 ;;		On exit  : 0/0
  3472 ;;		Unchanged: 0/0
  3473 ;; Data sizes:     COMMON   BANK0   BANK1   BANK3   BANK2
  3474 ;;      Params:         0       0       0       0       0
  3475 ;;      Locals:         0       0       0       0       0
  3476 ;;      Temps:          0       0       0       0       0
  3477 ;;      Totals:         0       0       0       0       0
  3478 ;;Total ram usage:        0 bytes
  3479 ;; Hardware stack levels used: 1
  3480 ;; This function calls:
  3481 ;;		Nothing
  3482 ;; This function is called by:
  3483 ;;		_main
  3484 ;; This function uses a non-reentrant model
  3485 ;;
  3486                           
  3487     022D                     _init_key_matrix:	
  3488                           ;psect for function _init_key_matrix
  3489                           
  3490     022D                     l1521:	
  3491                           ;incstack = 0
  3492                           ; Regs used in _init_key_matrix: []
  3493                           
  3494                           
  3495                           ;../Bai_1_GPIO.X/button.c: 13:  TRISD = 0x0f;
  3496     022D  300F               	movlw	15
  3497     022E  1683               	bsf	3,5	;RP0=1, select bank1
  3498     022F  1303               	bcf	3,6	;RP1=0, select bank1
  3499     0230  0088               	movwf	8	;volatile
  3500                           
  3501                           ;../Bai_1_GPIO.X/button.c: 14:  PORTD = 0xf0;
  3502     0231  30F0               	movlw	240
  3503     0232  1283               	bcf	3,5	;RP0=0, select bank0
  3504     0233  1303               	bcf	3,6	;RP1=0, select bank0
  3505     0234  0088               	movwf	8	;volatile
  3506     0235                     l15:
  3507     0235  0008               	return
  3508     0236                     __end_of_init_key_matrix:
  3509     0002                     ___latbits      equ	2
  3510     007E                     btemp           set	126	;btemp
  3511     007E                     btemp0          set	126
  3512     007F                     btemp1          set	127
  3513     007E                     wtemp0          set	126
  3514     007F                     wtemp0a         set	127
  3515     007F                     ttemp0a         set	127
  3516     0080                     ltemp0a         set	128

Data Sizes:
    Strings     25
    Constant    10
    Data        32
    BSS         70
    Persistent  0
    Stack       0

Auto Spaces:
    Space          Size  Autos    Used
    COMMON           14     14      14
    BANK0            80     25      79
    BANK1            80      0      48
    BANK3            96      0       0
    BANK2            96      0       0

Pointer List with Targets:

    fputc@fp	PTR struct _IO_FILE size(1) Largest target is 0
		 -> NULL(NULL[0]), 

    fputc@fp$.$buffer	PTR unsigned char  size(1) Largest target is 0

    fputc@fp$.$source	PTR const unsigned char  size(1) Largest target is 0

    lcd_puts@string_char	PTR const unsigned char  size(1) Largest target is 17
		 -> STR_1(CODE[17]), 

    printf@ap	PTR void [1] size(1) Largest target is 2
		 -> ?_printf(BANK0[2]), 

    printf@fmt	PTR const unsigned char  size(1) Largest target is 4
		 -> STR_2(CODE[4]), STR_3(CODE[4]), 

    S591$buffer	PTR unsigned char  size(1) Largest target is 0

    S591$source	PTR const unsigned char  size(1) Largest target is 0

    vfpfcnvrt@ap	PTR PTR void  size(1) Largest target is 1
		 -> printf@ap(BANK0[1]), 

    vfpfcnvrt@cp	PTR unsigned char  size(1) Largest target is 4
		 -> STR_2(CODE[4]), STR_3(CODE[4]), 

    vfpfcnvrt@fmt	PTR PTR unsigned char  size(1) Largest target is 1
		 -> vfprintf@cfmt(BANK0[1]), 

    vfpfcnvrt@fp	PTR struct _IO_FILE size(1) Largest target is 0
		 -> NULL(NULL[0]), 

    vfprintf@ap	PTR PTR void  size(1) Largest target is 1
		 -> printf@ap(BANK0[1]), 

    vfprintf@cfmt	PTR unsigned char  size(1) Largest target is 4
		 -> STR_2(CODE[4]), STR_3(CODE[4]), 

    vfprintf@fmt	PTR const unsigned char  size(1) Largest target is 4
		 -> STR_2(CODE[4]), STR_3(CODE[4]), 

    vfprintf@fp	PTR struct _IO_FILE size(1) Largest target is 0
		 -> NULL(NULL[0]), 


Critical Paths under _main in COMMON

    _vfprintf->_vfpfcnvrt
    _vfpfcnvrt->_fputc
    _fputc->_putch
    _putch->_lcd_putc
    _abs->___awmod
    _lcd_puts->_lcd_putc
    _lcd_putc->_write_data
    _lcd_init->_lcd_command
    _lcd_gotoxy->_lcd_command
    _lcd_command->_write_data
    _lcd_clear->_write_data
    _write_data->_lcd_delay
    _lcd_wait_busy->_lcd_delay

Critical Paths under _main in BANK0

    _main->_printf
    _printf->_vfprintf
    _vfprintf->_vfpfcnvrt
    _vfpfcnvrt->_fputc

Critical Paths under _main in BANK1

    None.

Critical Paths under _main in BANK3

    None.

Critical Paths under _main in BANK2

    None.

Call Graph Tables:

 ---------------------------------------------------------------------------------
 (Depth) Function   	        Calls       Base Space   Used Autos Params    Refs
 ---------------------------------------------------------------------------------
 (0) _main                                                 3     3      0    4116
                                             22 BANK0      3     3      0
                    _init_key_matrix
                     _isButtonNumber
                          _lcd_clear
                         _lcd_gotoxy
                           _lcd_init
                           _lcd_puts
                             _printf
                    _scan_key_matrix
 ---------------------------------------------------------------------------------
 (1) _scan_key_matrix                                     16    16      0     268
                                              0 COMMON    12    12      0
                                              0 BANK0      4     4      0
 ---------------------------------------------------------------------------------
 (1) _printf                                               6     3      3    2114
                                             18 BANK0      4     1      3
                           _vfprintf
 ---------------------------------------------------------------------------------
 (2) _vfprintf                                             4     1      3    2056
                                             14 BANK0      4     1      3
                          _vfpfcnvrt
 ---------------------------------------------------------------------------------
 (3) _vfpfcnvrt                                           12     9      3    1928
                                             11 COMMON     3     0      3
                                              5 BANK0      9     9      0
                            ___awdiv
                            ___awmod
                                _abs
                              _fputc
 ---------------------------------------------------------------------------------
 (4) _fputc                                                8     5      3     613
                                              8 COMMON     3     0      3
                                              0 BANK0      5     5      0
                              _putch
 ---------------------------------------------------------------------------------
 (5) _putch                                                1     1      0     381
                                              7 COMMON     1     1      0
                           _lcd_putc
 ---------------------------------------------------------------------------------
 (4) _abs                                                  4     2      2      67
                                              6 COMMON     4     2      2
                            ___awmod (ARG)
 ---------------------------------------------------------------------------------
 (4) ___awmod                                              6     2      4     298
                                              0 COMMON     6     2      4
 ---------------------------------------------------------------------------------
 (4) ___awdiv                                              8     4      4     302
                                              0 COMMON     8     4      4
 ---------------------------------------------------------------------------------
 (1) _lcd_puts                                             1     0      1     398
                                              7 COMMON     1     0      1
                           _lcd_putc
 ---------------------------------------------------------------------------------
 (6) _lcd_putc                                             1     1      0     352
                                              6 COMMON     1     1      0
                      _lcd_wait_busy
                         _write_data
 ---------------------------------------------------------------------------------
 (1) _lcd_init                                             0     0      0     435
                        _lcd_command
                          _lcd_delay
                      _lcd_wait_busy
 ---------------------------------------------------------------------------------
 (1) _lcd_gotoxy                                           3     2      1     488
                                              7 COMMON     3     2      1
                        _lcd_command
                      _lcd_wait_busy
 ---------------------------------------------------------------------------------
 (2) _lcd_command                                          1     1      0     352
                                              6 COMMON     1     1      0
                      _lcd_wait_busy
                         _write_data
 ---------------------------------------------------------------------------------
 (1) _lcd_clear                                            0     0      0     323
                      _lcd_wait_busy
                         _write_data
 ---------------------------------------------------------------------------------
 (7) _write_data                                           4     4      0     270
                                              2 COMMON     4     4      0
                          _lcd_delay
 ---------------------------------------------------------------------------------
 (7) _lcd_wait_busy                                        1     1      0      53
                                              2 COMMON     1     1      0
                          _lcd_delay
 ---------------------------------------------------------------------------------
 (8) _lcd_delay                                            2     0      2      30
                                              0 COMMON     2     0      2
 ---------------------------------------------------------------------------------
 (1) _isButtonNumber                                       4     4      0      90
                                              0 COMMON     4     4      0
 ---------------------------------------------------------------------------------
 (1) _init_key_matrix                                      0     0      0       0
 ---------------------------------------------------------------------------------
 Estimated maximum stack depth 8
 ---------------------------------------------------------------------------------

 Call Graph Graphs:

 _main (ROOT)
   _init_key_matrix
   _isButtonNumber
   _lcd_clear
     _lcd_wait_busy
       _lcd_delay
     _write_data
       _lcd_delay
   _lcd_gotoxy
     _lcd_command
       _lcd_wait_busy
       _write_data
     _lcd_wait_busy
   _lcd_init
     _lcd_command
     _lcd_delay
     _lcd_wait_busy
   _lcd_puts
     _lcd_putc
       _lcd_wait_busy
       _write_data
   _printf
     _vfprintf
       _vfpfcnvrt
         ___awdiv
         ___awmod
         _abs
           ___awmod (ARG)
         _fputc
           _putch
             _lcd_putc
   _scan_key_matrix

Address spaces:
Name               Size   Autos  Total    Usage
BANK3               96      0       0      0.0%
BITBANK3            96      0       0      0.0%
BANK2               96      0       0      0.0%
BITBANK2            96      0       0      0.0%
BANK1               80      0      48     60.0%
BITBANK1            80      0       0      0.0%
BANK0               80     25      79     98.8%
BITBANK0            80      0       0      0.0%
COMMON              14     14      14    100.0%
BITCOMMON           14      0       0      0.0%
DATA                 0      0     141      0.0%
STACK                0      0       0      0.0%


Microchip Technology PIC Macro Assembler V3.10 build 20250813170317 
Symbol Table                                                                                   Tue Nov  4 20:33:27 2025

                      pc 0002                       l15 0235                       l24 0605  
                     l81 02B6                       l92 0262                       l84 02CA  
                     l78 0576                       l86 02E4                       l95 035A  
                     l96 037D                       l97 0380                       l89 0293  
           ___awdiv@sign 0075                       fsr 0004                      l100 06C2  
                    l112 032D                      l113 0330                      l106 0243  
                    l114 0333                      l116 0352                      l129 0224  
                    l421 0491                      l159 0328                      l434 03D7  
                    l731 0252                      l783 02A4                      l759 07D0  
                    l776 0305                      l795 042E                      _RA0 0028  
                    _RA1 0029                      _RA2 002A                      _RA3 002B  
                    _RA4 002C                      _RA5 002D                      _RE0 0048  
                    u820 0243                      u821 0242                      u830 037D  
                    u831 037C                      u920 064F                      u904 0640  
                    u921 064B                      u915 0643                      u860 062B  
                    u861 0627                      u845 060F                      u950 0661  
                    u934 0652                      u951 065D                      u855 061F  
                    u945 0655                      u890 063D                      u874 062E  
                    u891 0639                      u980 067E                      u964 0664  
                    u981 067A                      u885 0631                      u975 0672  
                    u994 0681           ?_lcd_wait_busy 0070         scan_key_matrix@i 0046  
       scan_key_matrix@j 0048                      _abs 0294                      fsr0 0004  
                    indf 0000             ___awmod@sign 0075            lcd_delay@time 0070  
                   ?_abs 0076                     l1301 0617                     l1311 0652  
                   l1303 0619                     l1321 0681                     l1313 0664  
                   l1305 061C                     l1401 039C                     l1331 06B9  
                   l1323 0693                     l1315 0665                     l1307 062E  
                   l1411 03B6                     l1403 039F                     l1325 06A5  
                   l1317 0666                     l1309 0640                     l1333 02A6  
                   l1421 03D3                     l1413 03BC                     l1405 03A6  
                   l1341 021E                     l1271 0236                     l1327 06B7  
                   l1319 066F                     l1335 02AB                     l1351 043B  
                   l1343 042F                     l1415 03C3                     l1407 03A8  
                   l1431 03E9                     l1511 02E5                     l1521 022D  
                   l1273 0237                     l1281 0364                     l1329 06B8  
                   l1505 0284                     l1337 02AE                     l1361 044E  
                   l1353 043F                     l1345 0430                     l1409 03AC  
                   l1417 03C9                     l1441 0298                     l1433 03FA  
                   l1425 03D8                     l1513 02EA                     l1275 023D  
                   l1291 0378                     l1283 036A                     l1507 0289  
                   l1339 02AF                     l1371 046F                     l1363 0451  
                   l1355 0444                     l1347 0434                     l1419 03CE  
                   l1443 0299                     l1435 0417                     l1427 03DD  
                   l1451 06D6                     l1515 02F5                     l1531 0583  
                   l1523 0577                     l1285 036B                     l1277 0353  
                   l1293 0607                     l1509 028C                     l1381 0488  
                   l1373 0475                     l1365 0458                     l1357 0446  
                   l1349 0439                     l1429 03E2                     l1453 06DC  
                   l1517 0303                     l1541 05C8                     l1287 036C  
                   l1279 035B                     l1295 0608                     l1551 04FA  
                   l1383 048D                     l1375 0476                     l1367 045A  
                   l1359 0448                     l1391 0386                     l1439 0294  
                   l1471 0739                     l1463 070B                     l1455 06E0  
                   l1447 06C3                     l1543 05DD                     l1289 0375  
                   l1297 060A                     l1561 0253                     l1553 0508  
                   l1377 047D                     l1369 045E                     l1393 038B  
                   l1481 077C                     l1473 073B                     l1465 070F  
                   l1457 06EE                     l1449 06D2                     l1545 05E3  
                   l1537 0585                     l1529 057B                     l1299 060C  
                   l1563 0258                     l1555 02CA                     l1379 0483  
                   l1395 038D                     l1387 0381                     l1491 07A6  
                   l1483 0781                     l1475 0742                     l1467 071B  
                   l1459 06FC                     l1547 05F0                     l1539 0591  
                   l1581 0306                     l1565 025B                     l1573 0336  
                   l1557 02D6                     l1397 0391                     l1389 0382  
                   l1485 0786                     l1493 07AA                     l1477 0761  
                   l1469 0727                     l1549 05F8                     l1661 0492  
                   l1575 0344                     l1567 032A                     l1559 02D8  
                   l1399 0396                     l1487 078B                     l1479 0776  
                   l1495 07B1                     l1671 04BD                     l1663 0497  
                   l1593 0320                     l1577 0346                     l1569 032B  
                   l1489 0794                     l1681 04E8                     l1673 04C2  
                   l1665 049C                     l1595 0322                     l1587 0307  
                   l1579 034D                     l1499 07B7                     l1675 04C7  
                   l1667 04A3                     l1589 0318                     l1597 0244  
                   l1677 04CE                     l1669 04B8                     l1599 0248  
                   l1679 04D9                     STR_1 0013                     STR_2 0024  
                   STR_3 0028                     u1010 0690                     u1011 068C  
                   u1100 043F                     u1005 0684                     u1101 043E  
                   u1110 044E                     u1111 044D                     u1040 06A2  
                   u1024 0693                     u1200 0391                     u1041 069E  
                   u1201 0390                     u1130 045E                     u1210 039C  
                   u1035 0696                     u1131 045D                     u1211 039B  
                   u1300 03FA                     u1125 0452                     u1301 03F9  
                   u1070 06B4                     u1054 06A5                     u1150 046F  
                   u1230 03AC                     u1310 0417                     u1071 06B0  
                   u1151 046E                     u1231 03AB                     u1311 0416  
                   u1240 03B6                     u1320 0298                     u1400 0781  
                   u1065 06A8                     u1145 045F                     u1241 03B5  
                   u1225 03A0                     u1321 0297                     u1401 0780  
                   u1170 0483                     u1090 0434                     u1410 0786  
                   u1330 06D2                     u1171 0482                     u1155 046B  
                   u1091 0433                     u1315 0413                     u1411 0785  
                   u1331 06D1                     u1084 06B7                     u1180 0488  
                   u1260 03C9                     u1420 078B                     u1340 06EE  
                   u1500 0605                     u1181 0487                     u1165 0477  
                   u1261 03C8                     u1245 03B2                     u1421 078A  
                   u1341 06ED                     u1501 0604                     u1510 02E4  
                   u1270 03CE                     u1190 0386                     u1430 07B0  
                   u1350 071B                     u1511 02E3                     u1271 03CD  
                   u1255 03BD                     u1191 0385                     u1431 07AF  
                   u1351 071A                     u1520 0318                     u1280 03DD  
                   u1360 0727                     u1440 0303                     u1600 04D9  
                   u1521 0317                     u1281 03DC                     u1361 0726  
                   u1441 0302                     u1505 0601                     u1601 04D8  
                   u1530 0328                     u1290 03E2                     u1370 0740  
                   u1450 0591                     u1531 0327                     u1291 03E1  
                   u1371 073E                     u1451 0590                     u1380 0741  
                   u1390 077C                     u1391 077B                     u1465 0594  
                   u1617 04B2                     u1490 05F0                     u1491 05EF  
                   u1475 05B3                     u1485 05CB                     u1495 05EC  
                   abs@a 0076                     _dbuf 00A0                     _main 0492  
                   _prec 0042                     btemp 007E        lcd_wait_busy@busy 0072  
                   start 0000                    ??_abs 0078         nosup@@$_$_CONFIG 0000  
                  ?_main 0070          __end_of___awdiv 0492          __end_of___awmod 03D8  
        ___awdiv@divisor 0070          ___awdiv@counter 0074             vfpfcnvrt@fmt 007C  
                  _PORTD 0008                    _TRISD 0088                    _flags 0044  
                  _segCC 0009                    _fputc 03D8                    btemp0 007E  
                  btemp1 007F                    _width 0040                    _putch 021D  
                  pclath 000A                    status 0003                    wtemp0 007E  
        write_data@_data 0073          __initialization 07D1             __end_of_main 04FA  
          lcd_gotoxy@col 0078            lcd_gotoxy@row 0077      lcd_command@_command 0076  
        ??_lcd_wait_busy 0072                   ??_main 005C                   ?_fputc 0078  
       ___awdiv@dividend 0072                   ?_putch 0070            vfpfcnvrt@done 004D  
                 _TRISA0 0428                   _TRISA1 0429                   _TRISA2 042A  
                 _TRISA3 042B                   _TRISA4 042C                   _TRISA5 042D  
                 _TRISE0 0448             vfprintf@cfmt 0057         __end_of_lcd_init 0577  
       __end_of_lcd_putc 02B7         __end_of_lcd_puts 02E5                ??___awdiv 0074  
              ??___awmod 0074         ___awdiv@quotient 0076          ___awmod@divisor 0070  
        ___awmod@counter 0074                   _printf 0244                   fputc@c 0078  
                 ltemp0a 0080                   putch@c 0077                   ttemp0a 007F  
       __end_of_vfprintf 0306                   wtemp0a 007F         write_data@H_data 0074  
        _init_key_matrix 022D         write_data@L_data 0075   _arrayMaskInputOfButton 005F  
      lcd_putc@charactor 0076  __end_of__initialization 07FC         ??_isButtonNumber 0070  
         __pcstackCOMMON 0070             __pidataBANK0 0273             __pidataBANK1 0263  
          __end_of_segCC 0013            __end_of_fputc 042F            __end_of_putch 0225  
      lcd_gotoxy@address 0079                  ??_fputc 0046                  ??_putch 0077  
             __pbssBANK0 0020               __pbssBANK1 00A0               __pmaintext 0492  
                ?_printf 0058  __end_of_init_key_matrix 0236               _lcd_gotoxy 0329  
              ?_lcd_init 0070                ?_lcd_putc 0070                ?_lcd_puts 0077  
             __stringtab 0003        __end_of_lcd_delay 0244        __end_of_lcd_clear 0263  
                ___awdiv 042F                  ___awmod 0381                ?_vfprintf 0054  
       _arrayMapOfNumber 00C0                  __ptext1 0577                  __ptext2 0244  
                __ptext3 02E5                  __ptext4 06C3                  __ptext5 03D8  
                __ptext6 021D                  __ptext7 0294                  __ptext8 0381  
                __ptext9 042F         ___awmod@dividend 0072                  clrloop0 0226  
             ??_lcd_init 0077               ??_lcd_putc 0076               ??_lcd_puts 0078  
   end_of_initialization 07FC                  fputc@fp 007A        __end_of_vfpfcnvrt 07D1  
      ??_scan_key_matrix 0070         vfpfcnvrt@convarg 004F               ??_vfprintf 007E  
  __end_of_lcd_wait_busy 0381         ?_init_key_matrix 0070              ?_lcd_gotoxy 0077  
    lcd_puts@string_char 0077            ??_lcd_command 0076              vfpfcnvrt@ap 007D  
            vfpfcnvrt@cp 004E              vfpfcnvrt@fp 007B               _write_data 0606  
         __end_of_printf 0253      start_initialization 07D1              __end_of_abs 02A5  
        isButtonNumber@i 0073              vfprintf@fmt 0055               init_fetch0 02B7  
    __end_of_lcd_command 0294              __pdataBANK0 005F              __pdataBANK1 00C0  
               ??_printf 007E                ___latbits 0002            __pcstackBANK0 0046  
               ?___awdiv 0070                 ?___awmod 0070                _lcd_delay 0236  
              _lcd_clear 0253              ?_write_data 0070                __pstrings 0003  
        _scan_key_matrix 0577                clear_ram0 0225              _lcd_command 0283  
   _arrayMaskOutputOfKey 006B               ?_lcd_delay 0070               ?_lcd_clear 0070  
              _vfpfcnvrt 06C3              __stringbase 0008             ??_lcd_gotoxy 0078  
             vfpfcnvrt@c 0053      _arrayMaskInputOfKey 0067               vfprintf@ap 0056  
             vfprintf@fp 0054       __end_of_lcd_gotoxy 0353               ?_vfpfcnvrt 007B  
     __end_of__stringtab 0009  __end_of_scan_key_matrix 0606                 __ptext10 02CA  
               __ptext11 02A5                 __ptext20 022D                 __ptext12 04FA  
               __ptext13 0329                 __ptext14 0283                 __ptext15 0253  
               __ptext16 0606                 __ptext17 0353                 __ptext18 0236  
               __ptext19 0306                 _lcd_init 04FA                 _lcd_putc 02A5  
               _lcd_puts 02CA                 _key_code 0020           _isButtonNumber 0306  
               _vfprintf 02E5                printf@fmt 0058              ??_lcd_delay 0072  
            ??_lcd_clear 0076                 init_ram0 02BB                stringcode 0003  
 __end_of_isButtonNumber 0329                 printf@ap 005B             ??_write_data 0072  
            ??_vfpfcnvrt 004B              _numberValue 0045            _lcd_wait_busy 0353  
               stringdir 0003                 stringtab 0003         ?_scan_key_matrix 0070  
     __end_of_write_data 06C3             ?_lcd_command 0070        ??_init_key_matrix 0070  
        ?_isButtonNumber 0070  
