

Microchip MPLAB XC8 Assembler V3.10 build 20250813170317 
                                                                                               Sun Dec 21 10:02:33 2025

Microchip MPLAB XC8 C Compiler v3.10 (Free license) build 20250813170317 Og1 
     1                           	processor	16F887
     2                           	pagewidth 120
     3                           	opt	flic
     4                           	psect	cinit,global,class=CODE,space=0,merge=1,delta=2
     5                           	psect	bssCOMMON,global,class=COMMON,space=1,delta=1,noexec
     6                           	psect	bssBANK0,global,class=BANK0,space=1,delta=1,noexec
     7                           	psect	cstackCOMMON,global,class=COMMON,space=1,delta=1,noexec
     8                           	psect	cstackBANK0,global,class=BANK0,space=1,delta=1,noexec
     9                           	psect	maintext,global,class=CODE,space=0,split=1,delta=2
    10                           	psect	text1,local,class=CODE,space=0,merge=1,delta=2
    11                           	psect	text2,local,class=CODE,space=0,merge=1,delta=2
    12                           	psect	text3,local,class=CODE,space=0,merge=1,delta=2
    13                           	psect	text4,local,class=CODE,space=0,merge=1,delta=2,group=2
    14                           	psect	text5,local,class=CODE,space=0,merge=1,delta=2,group=1
    15                           	psect	text6,local,class=CODE,space=0,merge=1,delta=2
    16                           	psect	text7,local,class=CODE,space=0,merge=1,delta=2
    17                           	psect	text8,local,class=CODE,space=0,merge=1,delta=2
    18                           	psect	text9,local,class=CODE,space=0,merge=1,delta=2
    19                           	psect	text10,local,class=CODE,space=0,merge=1,delta=2
    20                           	psect	text11,local,class=CODE,space=0,merge=1,delta=2
    21                           	psect	intentry,global,class=CODE,space=0,delta=2
    22                           	psect	config,global,abs,ovrld,class=CONFIG,space=4,delta=2,noexec
    23                           	dabs	1,0x7E,2
    24     0000                     
    25                           ; Generated 12/10/2023 GMT
    26                           ; 
    27                           ; Copyright © 2023, Microchip Technology Inc. and its subsidiaries ("Microchip")
    28                           ; All rights reserved.
    29                           ; 
    30                           ; This software is developed by Microchip Technology Inc. and its subsidiaries ("Microch
      +                          ip").
    31                           ; 
    32                           ; Redistribution and use in source and binary forms, with or without modification, are
    33                           ; permitted provided that the following conditions are met:
    34                           ; 
    35                           ;     1. Redistributions of source code must retain the above copyright notice, this lis
      +                          t of
    36                           ;        conditions and the following disclaimer.
    37                           ; 
    38                           ;     2. Redistributions in binary form must reproduce the above copyright notice, this 
      +                          list
    39                           ;        of conditions and the following disclaimer in the documentation and/or other
    40                           ;        materials provided with the distribution. Publication is not required when
    41                           ;        this file is used in an embedded application.
    42                           ; 
    43                           ;     3. Microchip's name may not be used to endorse or promote products derived from th
      +                          is
    44                           ;        software without specific prior written permission.
    45                           ; 
    46                           ; THIS SOFTWARE IS PROVIDED BY MICROCHIP "AS IS" AND ANY EXPRESS OR IMPLIED WARRANTIES,
    47                           ; INCLUDING, BUT NOT LIMITED TO, THE IMPLIED WARRANTIES OF MERCHANTABILITY AND FITNESS F
      +                          OR
    48                           ; PURPOSE ARE DISCLAIMED.  IN NO EVENT SHALL MICROCHIP BE LIABLE FOR ANY DIRECT, INDIREC
      +                          T,
    49                           ; INCIDENTAL, SPECIAL, EXEMPLARY, OR CONSEQUENTIAL DAMAGES (INCLUDING BUT NOT LIMITED TO
    50                           ; PROCUREMENT OF SUBSTITUTE GOODS OR SERVICES; LOSS OF USE, DATA OR PROFITS; OR BUSINESS
    51                           ; INTERRUPTION) HOWSOEVER CAUSED AND ON ANY THEORY OF LIABILITY, WHETHER IN CONTRACT, ST
      +                          RICT
    52                           ; LIABILITY, OR TORT (INCLUDING NEGLIGENCE OR OTHERWISE) ARISING IN ANY WAY OUT OF THE U
      +                          SE OF
    53                           ; THIS SOFTWARE, EVEN IF ADVISED OF THE POSSIBILITY OF SUCH DAMAGE.
    54                           ; 
    55                           ; 
    56                           ; Code-generator required, PIC16F887 Definitions
    57                           ; 
    58                           ; SFR Addresses
    59     0004                     fsr             equ	4
    60     0004                     fsr0            equ	4
    61     0000                     indf            equ	0
    62     0000                     indf0           equ	0
    63     0002                     pc              equ	2
    64     0002                     pcl             equ	2
    65     000A                     pclath          equ	10
    66     0003                     status          equ	3
    67     0000                     INDF            equ	0	;# 
    68     0001                     TMR0            equ	1	;# 
    69     0002                     PCL             equ	2	;# 
    70     0003                     STATUS          equ	3	;# 
    71     0004                     FSR             equ	4	;# 
    72     0005                     PORTA           equ	5	;# 
    73     0006                     PORTB           equ	6	;# 
    74     0007                     PORTC           equ	7	;# 
    75     0008                     PORTD           equ	8	;# 
    76     0009                     PORTE           equ	9	;# 
    77     000A                     PCLATH          equ	10	;# 
    78     000B                     INTCON          equ	11	;# 
    79     000C                     PIR1            equ	12	;# 
    80     000D                     PIR2            equ	13	;# 
    81     000E                     TMR1            equ	14	;# 
    82     000E                     TMR1L           equ	14	;# 
    83     000F                     TMR1H           equ	15	;# 
    84     0010                     T1CON           equ	16	;# 
    85     0011                     TMR2            equ	17	;# 
    86     0012                     T2CON           equ	18	;# 
    87     0013                     SSPBUF          equ	19	;# 
    88     0014                     SSPCON          equ	20	;# 
    89     0015                     CCPR1           equ	21	;# 
    90     0015                     CCPR1L          equ	21	;# 
    91     0016                     CCPR1H          equ	22	;# 
    92     0017                     CCP1CON         equ	23	;# 
    93     0018                     RCSTA           equ	24	;# 
    94     0019                     TXREG           equ	25	;# 
    95     001A                     RCREG           equ	26	;# 
    96     001B                     CCPR2           equ	27	;# 
    97     001B                     CCPR2L          equ	27	;# 
    98     001C                     CCPR2H          equ	28	;# 
    99     001D                     CCP2CON         equ	29	;# 
   100     001E                     ADRESH          equ	30	;# 
   101     001F                     ADCON0          equ	31	;# 
   102     0081                     OPTION_REG      equ	129	;# 
   103     0085                     TRISA           equ	133	;# 
   104     0086                     TRISB           equ	134	;# 
   105     0087                     TRISC           equ	135	;# 
   106     0088                     TRISD           equ	136	;# 
   107     0089                     TRISE           equ	137	;# 
   108     008C                     PIE1            equ	140	;# 
   109     008D                     PIE2            equ	141	;# 
   110     008E                     PCON            equ	142	;# 
   111     008F                     OSCCON          equ	143	;# 
   112     0090                     OSCTUNE         equ	144	;# 
   113     0091                     SSPCON2         equ	145	;# 
   114     0092                     PR2             equ	146	;# 
   115     0093                     SSPADD          equ	147	;# 
   116     0093                     SSPMSK          equ	147	;# 
   117     0093                     MSK             equ	147	;# 
   118     0094                     SSPSTAT         equ	148	;# 
   119     0095                     WPUB            equ	149	;# 
   120     0096                     IOCB            equ	150	;# 
   121     0097                     VRCON           equ	151	;# 
   122     0098                     TXSTA           equ	152	;# 
   123     0099                     SPBRG           equ	153	;# 
   124     009A                     SPBRGH          equ	154	;# 
   125     009B                     PWM1CON         equ	155	;# 
   126     009C                     ECCPAS          equ	156	;# 
   127     009D                     PSTRCON         equ	157	;# 
   128     009E                     ADRESL          equ	158	;# 
   129     009F                     ADCON1          equ	159	;# 
   130     0105                     WDTCON          equ	261	;# 
   131     0107                     CM1CON0         equ	263	;# 
   132     0108                     CM2CON0         equ	264	;# 
   133     0109                     CM2CON1         equ	265	;# 
   134     010C                     EEDATA          equ	268	;# 
   135     010C                     EEDAT           equ	268	;# 
   136     010D                     EEADR           equ	269	;# 
   137     010E                     EEDATH          equ	270	;# 
   138     010F                     EEADRH          equ	271	;# 
   139     0185                     SRCON           equ	389	;# 
   140     0187                     BAUDCTL         equ	391	;# 
   141     0188                     ANSEL           equ	392	;# 
   142     0189                     ANSELH          equ	393	;# 
   143     018C                     EECON1          equ	396	;# 
   144     018D                     EECON2          equ	397	;# 
   145     0000                     INDF            equ	0	;# 
   146     0001                     TMR0            equ	1	;# 
   147     0002                     PCL             equ	2	;# 
   148     0003                     STATUS          equ	3	;# 
   149     0004                     FSR             equ	4	;# 
   150     0005                     PORTA           equ	5	;# 
   151     0006                     PORTB           equ	6	;# 
   152     0007                     PORTC           equ	7	;# 
   153     0008                     PORTD           equ	8	;# 
   154     0009                     PORTE           equ	9	;# 
   155     000A                     PCLATH          equ	10	;# 
   156     000B                     INTCON          equ	11	;# 
   157     000C                     PIR1            equ	12	;# 
   158     000D                     PIR2            equ	13	;# 
   159     000E                     TMR1            equ	14	;# 
   160     000E                     TMR1L           equ	14	;# 
   161     000F                     TMR1H           equ	15	;# 
   162     0010                     T1CON           equ	16	;# 
   163     0011                     TMR2            equ	17	;# 
   164     0012                     T2CON           equ	18	;# 
   165     0013                     SSPBUF          equ	19	;# 
   166     0014                     SSPCON          equ	20	;# 
   167     0015                     CCPR1           equ	21	;# 
   168     0015                     CCPR1L          equ	21	;# 
   169     0016                     CCPR1H          equ	22	;# 
   170     0017                     CCP1CON         equ	23	;# 
   171     0018                     RCSTA           equ	24	;# 
   172     0019                     TXREG           equ	25	;# 
   173     001A                     RCREG           equ	26	;# 
   174     001B                     CCPR2           equ	27	;# 
   175     001B                     CCPR2L          equ	27	;# 
   176     001C                     CCPR2H          equ	28	;# 
   177     001D                     CCP2CON         equ	29	;# 
   178     001E                     ADRESH          equ	30	;# 
   179     001F                     ADCON0          equ	31	;# 
   180     0081                     OPTION_REG      equ	129	;# 
   181     0085                     TRISA           equ	133	;# 
   182     0086                     TRISB           equ	134	;# 
   183     0087                     TRISC           equ	135	;# 
   184     0088                     TRISD           equ	136	;# 
   185     0089                     TRISE           equ	137	;# 
   186     008C                     PIE1            equ	140	;# 
   187     008D                     PIE2            equ	141	;# 
   188     008E                     PCON            equ	142	;# 
   189     008F                     OSCCON          equ	143	;# 
   190     0090                     OSCTUNE         equ	144	;# 
   191     0091                     SSPCON2         equ	145	;# 
   192     0092                     PR2             equ	146	;# 
   193     0093                     SSPADD          equ	147	;# 
   194     0093                     SSPMSK          equ	147	;# 
   195     0093                     MSK             equ	147	;# 
   196     0094                     SSPSTAT         equ	148	;# 
   197     0095                     WPUB            equ	149	;# 
   198     0096                     IOCB            equ	150	;# 
   199     0097                     VRCON           equ	151	;# 
   200     0098                     TXSTA           equ	152	;# 
   201     0099                     SPBRG           equ	153	;# 
   202     009A                     SPBRGH          equ	154	;# 
   203     009B                     PWM1CON         equ	155	;# 
   204     009C                     ECCPAS          equ	156	;# 
   205     009D                     PSTRCON         equ	157	;# 
   206     009E                     ADRESL          equ	158	;# 
   207     009F                     ADCON1          equ	159	;# 
   208     0105                     WDTCON          equ	261	;# 
   209     0107                     CM1CON0         equ	263	;# 
   210     0108                     CM2CON0         equ	264	;# 
   211     0109                     CM2CON1         equ	265	;# 
   212     010C                     EEDATA          equ	268	;# 
   213     010C                     EEDAT           equ	268	;# 
   214     010D                     EEADR           equ	269	;# 
   215     010E                     EEDATH          equ	270	;# 
   216     010F                     EEADRH          equ	271	;# 
   217     0185                     SRCON           equ	389	;# 
   218     0187                     BAUDCTL         equ	391	;# 
   219     0188                     ANSEL           equ	392	;# 
   220     0189                     ANSELH          equ	393	;# 
   221     018C                     EECON1          equ	396	;# 
   222     018D                     EECON2          equ	397	;# 
   223     0000                     INDF            equ	0	;# 
   224     0001                     TMR0            equ	1	;# 
   225     0002                     PCL             equ	2	;# 
   226     0003                     STATUS          equ	3	;# 
   227     0004                     FSR             equ	4	;# 
   228     0005                     PORTA           equ	5	;# 
   229     0006                     PORTB           equ	6	;# 
   230     0007                     PORTC           equ	7	;# 
   231     0008                     PORTD           equ	8	;# 
   232     0009                     PORTE           equ	9	;# 
   233     000A                     PCLATH          equ	10	;# 
   234     000B                     INTCON          equ	11	;# 
   235     000C                     PIR1            equ	12	;# 
   236     000D                     PIR2            equ	13	;# 
   237     000E                     TMR1            equ	14	;# 
   238     000E                     TMR1L           equ	14	;# 
   239     000F                     TMR1H           equ	15	;# 
   240     0010                     T1CON           equ	16	;# 
   241     0011                     TMR2            equ	17	;# 
   242     0012                     T2CON           equ	18	;# 
   243     0013                     SSPBUF          equ	19	;# 
   244     0014                     SSPCON          equ	20	;# 
   245     0015                     CCPR1           equ	21	;# 
   246     0015                     CCPR1L          equ	21	;# 
   247     0016                     CCPR1H          equ	22	;# 
   248     0017                     CCP1CON         equ	23	;# 
   249     0018                     RCSTA           equ	24	;# 
   250     0019                     TXREG           equ	25	;# 
   251     001A                     RCREG           equ	26	;# 
   252     001B                     CCPR2           equ	27	;# 
   253     001B                     CCPR2L          equ	27	;# 
   254     001C                     CCPR2H          equ	28	;# 
   255     001D                     CCP2CON         equ	29	;# 
   256     001E                     ADRESH          equ	30	;# 
   257     001F                     ADCON0          equ	31	;# 
   258     0081                     OPTION_REG      equ	129	;# 
   259     0085                     TRISA           equ	133	;# 
   260     0086                     TRISB           equ	134	;# 
   261     0087                     TRISC           equ	135	;# 
   262     0088                     TRISD           equ	136	;# 
   263     0089                     TRISE           equ	137	;# 
   264     008C                     PIE1            equ	140	;# 
   265     008D                     PIE2            equ	141	;# 
   266     008E                     PCON            equ	142	;# 
   267     008F                     OSCCON          equ	143	;# 
   268     0090                     OSCTUNE         equ	144	;# 
   269     0091                     SSPCON2         equ	145	;# 
   270     0092                     PR2             equ	146	;# 
   271     0093                     SSPADD          equ	147	;# 
   272     0093                     SSPMSK          equ	147	;# 
   273     0093                     MSK             equ	147	;# 
   274     0094                     SSPSTAT         equ	148	;# 
   275     0095                     WPUB            equ	149	;# 
   276     0096                     IOCB            equ	150	;# 
   277     0097                     VRCON           equ	151	;# 
   278     0098                     TXSTA           equ	152	;# 
   279     0099                     SPBRG           equ	153	;# 
   280     009A                     SPBRGH          equ	154	;# 
   281     009B                     PWM1CON         equ	155	;# 
   282     009C                     ECCPAS          equ	156	;# 
   283     009D                     PSTRCON         equ	157	;# 
   284     009E                     ADRESL          equ	158	;# 
   285     009F                     ADCON1          equ	159	;# 
   286     0105                     WDTCON          equ	261	;# 
   287     0107                     CM1CON0         equ	263	;# 
   288     0108                     CM2CON0         equ	264	;# 
   289     0109                     CM2CON1         equ	265	;# 
   290     010C                     EEDATA          equ	268	;# 
   291     010C                     EEDAT           equ	268	;# 
   292     010D                     EEADR           equ	269	;# 
   293     010E                     EEDATH          equ	270	;# 
   294     010F                     EEADRH          equ	271	;# 
   295     0185                     SRCON           equ	389	;# 
   296     0187                     BAUDCTL         equ	391	;# 
   297     0188                     ANSEL           equ	392	;# 
   298     0189                     ANSELH          equ	393	;# 
   299     018C                     EECON1          equ	396	;# 
   300     018D                     EECON2          equ	397	;# 
   301     0000                     INDF            equ	0	;# 
   302     0001                     TMR0            equ	1	;# 
   303     0002                     PCL             equ	2	;# 
   304     0003                     STATUS          equ	3	;# 
   305     0004                     FSR             equ	4	;# 
   306     0005                     PORTA           equ	5	;# 
   307     0006                     PORTB           equ	6	;# 
   308     0007                     PORTC           equ	7	;# 
   309     0008                     PORTD           equ	8	;# 
   310     0009                     PORTE           equ	9	;# 
   311     000A                     PCLATH          equ	10	;# 
   312     000B                     INTCON          equ	11	;# 
   313     000C                     PIR1            equ	12	;# 
   314     000D                     PIR2            equ	13	;# 
   315     000E                     TMR1            equ	14	;# 
   316     000E                     TMR1L           equ	14	;# 
   317     000F                     TMR1H           equ	15	;# 
   318     0010                     T1CON           equ	16	;# 
   319     0011                     TMR2            equ	17	;# 
   320     0012                     T2CON           equ	18	;# 
   321     0013                     SSPBUF          equ	19	;# 
   322     0014                     SSPCON          equ	20	;# 
   323     0015                     CCPR1           equ	21	;# 
   324     0015                     CCPR1L          equ	21	;# 
   325     0016                     CCPR1H          equ	22	;# 
   326     0017                     CCP1CON         equ	23	;# 
   327     0018                     RCSTA           equ	24	;# 
   328     0019                     TXREG           equ	25	;# 
   329     001A                     RCREG           equ	26	;# 
   330     001B                     CCPR2           equ	27	;# 
   331     001B                     CCPR2L          equ	27	;# 
   332     001C                     CCPR2H          equ	28	;# 
   333     001D                     CCP2CON         equ	29	;# 
   334     001E                     ADRESH          equ	30	;# 
   335     001F                     ADCON0          equ	31	;# 
   336     0081                     OPTION_REG      equ	129	;# 
   337     0085                     TRISA           equ	133	;# 
   338     0086                     TRISB           equ	134	;# 
   339     0087                     TRISC           equ	135	;# 
   340     0088                     TRISD           equ	136	;# 
   341     0089                     TRISE           equ	137	;# 
   342     008C                     PIE1            equ	140	;# 
   343     008D                     PIE2            equ	141	;# 
   344     008E                     PCON            equ	142	;# 
   345     008F                     OSCCON          equ	143	;# 
   346     0090                     OSCTUNE         equ	144	;# 
   347     0091                     SSPCON2         equ	145	;# 
   348     0092                     PR2             equ	146	;# 
   349     0093                     SSPADD          equ	147	;# 
   350     0093                     SSPMSK          equ	147	;# 
   351     0093                     MSK             equ	147	;# 
   352     0094                     SSPSTAT         equ	148	;# 
   353     0095                     WPUB            equ	149	;# 
   354     0096                     IOCB            equ	150	;# 
   355     0097                     VRCON           equ	151	;# 
   356     0098                     TXSTA           equ	152	;# 
   357     0099                     SPBRG           equ	153	;# 
   358     009A                     SPBRGH          equ	154	;# 
   359     009B                     PWM1CON         equ	155	;# 
   360     009C                     ECCPAS          equ	156	;# 
   361     009D                     PSTRCON         equ	157	;# 
   362     009E                     ADRESL          equ	158	;# 
   363     009F                     ADCON1          equ	159	;# 
   364     0105                     WDTCON          equ	261	;# 
   365     0107                     CM1CON0         equ	263	;# 
   366     0108                     CM2CON0         equ	264	;# 
   367     0109                     CM2CON1         equ	265	;# 
   368     010C                     EEDATA          equ	268	;# 
   369     010C                     EEDAT           equ	268	;# 
   370     010D                     EEADR           equ	269	;# 
   371     010E                     EEDATH          equ	270	;# 
   372     010F                     EEADRH          equ	271	;# 
   373     0185                     SRCON           equ	389	;# 
   374     0187                     BAUDCTL         equ	391	;# 
   375     0188                     ANSEL           equ	392	;# 
   376     0189                     ANSELH          equ	393	;# 
   377     018C                     EECON1          equ	396	;# 
   378     018D                     EECON2          equ	397	;# 
   379     0000                     INDF            equ	0	;# 
   380     0001                     TMR0            equ	1	;# 
   381     0002                     PCL             equ	2	;# 
   382     0003                     STATUS          equ	3	;# 
   383     0004                     FSR             equ	4	;# 
   384     0005                     PORTA           equ	5	;# 
   385     0006                     PORTB           equ	6	;# 
   386     0007                     PORTC           equ	7	;# 
   387     0008                     PORTD           equ	8	;# 
   388     0009                     PORTE           equ	9	;# 
   389     000A                     PCLATH          equ	10	;# 
   390     000B                     INTCON          equ	11	;# 
   391     000C                     PIR1            equ	12	;# 
   392     000D                     PIR2            equ	13	;# 
   393     000E                     TMR1            equ	14	;# 
   394     000E                     TMR1L           equ	14	;# 
   395     000F                     TMR1H           equ	15	;# 
   396     0010                     T1CON           equ	16	;# 
   397     0011                     TMR2            equ	17	;# 
   398     0012                     T2CON           equ	18	;# 
   399     0013                     SSPBUF          equ	19	;# 
   400     0014                     SSPCON          equ	20	;# 
   401     0015                     CCPR1           equ	21	;# 
   402     0015                     CCPR1L          equ	21	;# 
   403     0016                     CCPR1H          equ	22	;# 
   404     0017                     CCP1CON         equ	23	;# 
   405     0018                     RCSTA           equ	24	;# 
   406     0019                     TXREG           equ	25	;# 
   407     001A                     RCREG           equ	26	;# 
   408     001B                     CCPR2           equ	27	;# 
   409     001B                     CCPR2L          equ	27	;# 
   410     001C                     CCPR2H          equ	28	;# 
   411     001D                     CCP2CON         equ	29	;# 
   412     001E                     ADRESH          equ	30	;# 
   413     001F                     ADCON0          equ	31	;# 
   414     0081                     OPTION_REG      equ	129	;# 
   415     0085                     TRISA           equ	133	;# 
   416     0086                     TRISB           equ	134	;# 
   417     0087                     TRISC           equ	135	;# 
   418     0088                     TRISD           equ	136	;# 
   419     0089                     TRISE           equ	137	;# 
   420     008C                     PIE1            equ	140	;# 
   421     008D                     PIE2            equ	141	;# 
   422     008E                     PCON            equ	142	;# 
   423     008F                     OSCCON          equ	143	;# 
   424     0090                     OSCTUNE         equ	144	;# 
   425     0091                     SSPCON2         equ	145	;# 
   426     0092                     PR2             equ	146	;# 
   427     0093                     SSPADD          equ	147	;# 
   428     0093                     SSPMSK          equ	147	;# 
   429     0093                     MSK             equ	147	;# 
   430     0094                     SSPSTAT         equ	148	;# 
   431     0095                     WPUB            equ	149	;# 
   432     0096                     IOCB            equ	150	;# 
   433     0097                     VRCON           equ	151	;# 
   434     0098                     TXSTA           equ	152	;# 
   435     0099                     SPBRG           equ	153	;# 
   436     009A                     SPBRGH          equ	154	;# 
   437     009B                     PWM1CON         equ	155	;# 
   438     009C                     ECCPAS          equ	156	;# 
   439     009D                     PSTRCON         equ	157	;# 
   440     009E                     ADRESL          equ	158	;# 
   441     009F                     ADCON1          equ	159	;# 
   442     0105                     WDTCON          equ	261	;# 
   443     0107                     CM1CON0         equ	263	;# 
   444     0108                     CM2CON0         equ	264	;# 
   445     0109                     CM2CON1         equ	265	;# 
   446     010C                     EEDATA          equ	268	;# 
   447     010C                     EEDAT           equ	268	;# 
   448     010D                     EEADR           equ	269	;# 
   449     010E                     EEDATH          equ	270	;# 
   450     010F                     EEADRH          equ	271	;# 
   451     0185                     SRCON           equ	389	;# 
   452     0187                     BAUDCTL         equ	391	;# 
   453     0188                     ANSEL           equ	392	;# 
   454     0189                     ANSELH          equ	393	;# 
   455     018C                     EECON1          equ	396	;# 
   456     018D                     EECON2          equ	397	;# 
   457     0000                     INDF            equ	0	;# 
   458     0001                     TMR0            equ	1	;# 
   459     0002                     PCL             equ	2	;# 
   460     0003                     STATUS          equ	3	;# 
   461     0004                     FSR             equ	4	;# 
   462     0005                     PORTA           equ	5	;# 
   463     0006                     PORTB           equ	6	;# 
   464     0007                     PORTC           equ	7	;# 
   465     0008                     PORTD           equ	8	;# 
   466     0009                     PORTE           equ	9	;# 
   467     000A                     PCLATH          equ	10	;# 
   468     000B                     INTCON          equ	11	;# 
   469     000C                     PIR1            equ	12	;# 
   470     000D                     PIR2            equ	13	;# 
   471     000E                     TMR1            equ	14	;# 
   472     000E                     TMR1L           equ	14	;# 
   473     000F                     TMR1H           equ	15	;# 
   474     0010                     T1CON           equ	16	;# 
   475     0011                     TMR2            equ	17	;# 
   476     0012                     T2CON           equ	18	;# 
   477     0013                     SSPBUF          equ	19	;# 
   478     0014                     SSPCON          equ	20	;# 
   479     0015                     CCPR1           equ	21	;# 
   480     0015                     CCPR1L          equ	21	;# 
   481     0016                     CCPR1H          equ	22	;# 
   482     0017                     CCP1CON         equ	23	;# 
   483     0018                     RCSTA           equ	24	;# 
   484     0019                     TXREG           equ	25	;# 
   485     001A                     RCREG           equ	26	;# 
   486     001B                     CCPR2           equ	27	;# 
   487     001B                     CCPR2L          equ	27	;# 
   488     001C                     CCPR2H          equ	28	;# 
   489     001D                     CCP2CON         equ	29	;# 
   490     001E                     ADRESH          equ	30	;# 
   491     001F                     ADCON0          equ	31	;# 
   492     0081                     OPTION_REG      equ	129	;# 
   493     0085                     TRISA           equ	133	;# 
   494     0086                     TRISB           equ	134	;# 
   495     0087                     TRISC           equ	135	;# 
   496     0088                     TRISD           equ	136	;# 
   497     0089                     TRISE           equ	137	;# 
   498     008C                     PIE1            equ	140	;# 
   499     008D                     PIE2            equ	141	;# 
   500     008E                     PCON            equ	142	;# 
   501     008F                     OSCCON          equ	143	;# 
   502     0090                     OSCTUNE         equ	144	;# 
   503     0091                     SSPCON2         equ	145	;# 
   504     0092                     PR2             equ	146	;# 
   505     0093                     SSPADD          equ	147	;# 
   506     0093                     SSPMSK          equ	147	;# 
   507     0093                     MSK             equ	147	;# 
   508     0094                     SSPSTAT         equ	148	;# 
   509     0095                     WPUB            equ	149	;# 
   510     0096                     IOCB            equ	150	;# 
   511     0097                     VRCON           equ	151	;# 
   512     0098                     TXSTA           equ	152	;# 
   513     0099                     SPBRG           equ	153	;# 
   514     009A                     SPBRGH          equ	154	;# 
   515     009B                     PWM1CON         equ	155	;# 
   516     009C                     ECCPAS          equ	156	;# 
   517     009D                     PSTRCON         equ	157	;# 
   518     009E                     ADRESL          equ	158	;# 
   519     009F                     ADCON1          equ	159	;# 
   520     0105                     WDTCON          equ	261	;# 
   521     0107                     CM1CON0         equ	263	;# 
   522     0108                     CM2CON0         equ	264	;# 
   523     0109                     CM2CON1         equ	265	;# 
   524     010C                     EEDATA          equ	268	;# 
   525     010C                     EEDAT           equ	268	;# 
   526     010D                     EEADR           equ	269	;# 
   527     010E                     EEDATH          equ	270	;# 
   528     010F                     EEADRH          equ	271	;# 
   529     0185                     SRCON           equ	389	;# 
   530     0187                     BAUDCTL         equ	391	;# 
   531     0188                     ANSEL           equ	392	;# 
   532     0189                     ANSELH          equ	393	;# 
   533     018C                     EECON1          equ	396	;# 
   534     018D                     EECON2          equ	397	;# 
   535     0000                     INDF            equ	0	;# 
   536     0001                     TMR0            equ	1	;# 
   537     0002                     PCL             equ	2	;# 
   538     0003                     STATUS          equ	3	;# 
   539     0004                     FSR             equ	4	;# 
   540     0005                     PORTA           equ	5	;# 
   541     0006                     PORTB           equ	6	;# 
   542     0007                     PORTC           equ	7	;# 
   543     0008                     PORTD           equ	8	;# 
   544     0009                     PORTE           equ	9	;# 
   545     000A                     PCLATH          equ	10	;# 
   546     000B                     INTCON          equ	11	;# 
   547     000C                     PIR1            equ	12	;# 
   548     000D                     PIR2            equ	13	;# 
   549     000E                     TMR1            equ	14	;# 
   550     000E                     TMR1L           equ	14	;# 
   551     000F                     TMR1H           equ	15	;# 
   552     0010                     T1CON           equ	16	;# 
   553     0011                     TMR2            equ	17	;# 
   554     0012                     T2CON           equ	18	;# 
   555     0013                     SSPBUF          equ	19	;# 
   556     0014                     SSPCON          equ	20	;# 
   557     0015                     CCPR1           equ	21	;# 
   558     0015                     CCPR1L          equ	21	;# 
   559     0016                     CCPR1H          equ	22	;# 
   560     0017                     CCP1CON         equ	23	;# 
   561     0018                     RCSTA           equ	24	;# 
   562     0019                     TXREG           equ	25	;# 
   563     001A                     RCREG           equ	26	;# 
   564     001B                     CCPR2           equ	27	;# 
   565     001B                     CCPR2L          equ	27	;# 
   566     001C                     CCPR2H          equ	28	;# 
   567     001D                     CCP2CON         equ	29	;# 
   568     001E                     ADRESH          equ	30	;# 
   569     001F                     ADCON0          equ	31	;# 
   570     0081                     OPTION_REG      equ	129	;# 
   571     0085                     TRISA           equ	133	;# 
   572     0086                     TRISB           equ	134	;# 
   573     0087                     TRISC           equ	135	;# 
   574     0088                     TRISD           equ	136	;# 
   575     0089                     TRISE           equ	137	;# 
   576     008C                     PIE1            equ	140	;# 
   577     008D                     PIE2            equ	141	;# 
   578     008E                     PCON            equ	142	;# 
   579     008F                     OSCCON          equ	143	;# 
   580     0090                     OSCTUNE         equ	144	;# 
   581     0091                     SSPCON2         equ	145	;# 
   582     0092                     PR2             equ	146	;# 
   583     0093                     SSPADD          equ	147	;# 
   584     0093                     SSPMSK          equ	147	;# 
   585     0093                     MSK             equ	147	;# 
   586     0094                     SSPSTAT         equ	148	;# 
   587     0095                     WPUB            equ	149	;# 
   588     0096                     IOCB            equ	150	;# 
   589     0097                     VRCON           equ	151	;# 
   590     0098                     TXSTA           equ	152	;# 
   591     0099                     SPBRG           equ	153	;# 
   592     009A                     SPBRGH          equ	154	;# 
   593     009B                     PWM1CON         equ	155	;# 
   594     009C                     ECCPAS          equ	156	;# 
   595     009D                     PSTRCON         equ	157	;# 
   596     009E                     ADRESL          equ	158	;# 
   597     009F                     ADCON1          equ	159	;# 
   598     0105                     WDTCON          equ	261	;# 
   599     0107                     CM1CON0         equ	263	;# 
   600     0108                     CM2CON0         equ	264	;# 
   601     0109                     CM2CON1         equ	265	;# 
   602     010C                     EEDATA          equ	268	;# 
   603     010C                     EEDAT           equ	268	;# 
   604     010D                     EEADR           equ	269	;# 
   605     010E                     EEDATH          equ	270	;# 
   606     010F                     EEADRH          equ	271	;# 
   607     0185                     SRCON           equ	389	;# 
   608     0187                     BAUDCTL         equ	391	;# 
   609     0188                     ANSEL           equ	392	;# 
   610     0189                     ANSELH          equ	393	;# 
   611     018C                     EECON1          equ	396	;# 
   612     018D                     EECON2          equ	397	;# 
   613     0012                     _T2CON          set	18
   614     0011                     _TMR2           set	17
   615     001B                     _CCPR2L         set	27
   616     0015                     _CCPR1L         set	21
   617     0017                     _CCP1CON        set	23
   618     001D                     _CCP2CON        set	29
   619     001E                     _ADRESH         set	30
   620     001F                     _ADCON0         set	31
   621     0009                     _PORTE          set	9
   622     0008                     _PORTD          set	8
   623     0006                     _PORTB          set	6
   624     005F                     _GIE            set	95
   625     0048                     _RE0            set	72
   626     0058                     _RBIF           set	88
   627     005B                     _RBIE           set	91
   628     0031                     _RB1            set	49
   629     0034                     _RB4            set	52
   630     0030                     _RB0            set	48
   631     0035                     _RB5            set	53
   632     0040                     _RD0            set	64
   633     0032                     _RB2            set	50
   634     0033                     _RB3            set	51
   635     00F9                     _GO_DONE        set	249
   636     003E                     _RC6            set	62
   637     003D                     _RC5            set	61
   638     003C                     _RC4            set	60
   639     003B                     _RC3            set	59
   640     0045                     _RD5            set	69
   641     0046                     _RD6            set	70
   642     0044                     _RD4            set	68
   643     0096                     _IOCB           set	150
   644     0092                     _PR2            set	146
   645     009E                     _ADRESL         set	158
   646     009F                     _ADCON1         set	159
   647     0089                     _TRISE          set	137
   648     0087                     _TRISC          set	135
   649     0088                     _TRISD          set	136
   650     0086                     _TRISB          set	134
   651     043A                     _TRISC2         set	1082
   652     0439                     _TRISC1         set	1081
   653     0189                     _ANSELH         set	393
   654     0188                     _ANSEL          set	392
   655                           
   656                           	psect	cinit
   657     000F                     start_initialization:	
   658                           ; #config settings
   659                           
   660     000F                     __initialization:
   661                           
   662                           ; Clear objects allocated to COMMON
   663     000F  01F6               	clrf	__pbssCOMMON& (0+127)
   664     0010  01F7               	clrf	(__pbssCOMMON+1)& (0+127)
   665     0011  01F8               	clrf	(__pbssCOMMON+2)& (0+127)
   666     0012  01F9               	clrf	(__pbssCOMMON+3)& (0+127)
   667                           
   668                           ; Clear objects allocated to BANK0
   669     0013  1283               	bcf	3,5	;RP0=0, select bank0
   670     0014  1303               	bcf	3,6	;RP1=0, select bank0
   671     0015  01C7               	clrf	__pbssBANK0& (0+127)
   672     0016  01C8               	clrf	(__pbssBANK0+1)& (0+127)
   673     0017  01C9               	clrf	(__pbssBANK0+2)& (0+127)
   674     0018  01CA               	clrf	(__pbssBANK0+3)& (0+127)
   675     0019  01CB               	clrf	(__pbssBANK0+4)& (0+127)
   676     001A  01CC               	clrf	(__pbssBANK0+5)& (0+127)
   677     001B  01CD               	clrf	(__pbssBANK0+6)& (0+127)
   678     001C  01CE               	clrf	(__pbssBANK0+7)& (0+127)
   679     001D  01CF               	clrf	(__pbssBANK0+8)& (0+127)
   680     001E  01D0               	clrf	(__pbssBANK0+9)& (0+127)
   681     001F  01D1               	clrf	(__pbssBANK0+10)& (0+127)
   682     0020  01D2               	clrf	(__pbssBANK0+11)& (0+127)
   683     0021                     end_of_initialization:	
   684                           ;End of C runtime variable initialization code
   685                           
   686     0021                     __end_of__initialization:
   687     0021  0183               	clrf	3
   688     0022  120A  118A  2B20   	ljmp	_main	;jump to C main() function
   689                           
   690                           	psect	bssCOMMON
   691     0076                     __pbssCOMMON:
   692     0076                     _read_dataPortB:
   693     0076                     	ds	2
   694     0078                     _autocar:
   695     0078                     	ds	1
   696     0079                     _drivercar:
   697     0079                     	ds	1
   698                           
   699                           	psect	bssBANK0
   700     0047                     __pbssBANK0:
   701     0047                     _lost_cnt:
   702     0047                     	ds	2
   703     0049                     _last_Error:
   704     0049                     	ds	2
   705     004B                     _kp_local:
   706     004B                     	ds	2
   707     004D                     _kd_local:
   708     004D                     	ds	2
   709     004F                     _base:
   710     004F                     	ds	2
   711     0051                     _Error:
   712     0051                     	ds	2
   713                           
   714                           	psect	cstackCOMMON
   715     0070                     __pcstackCOMMON:
   716     0070                     ?_analogWrite_init:
   717     0070                     ?_Initialize_interrupt:	
   718                           ; 1 bytes @ 0x0
   719                           
   720     0070                     ?_read_line_Error:	
   721                           ; 1 bytes @ 0x0
   722                           
   723     0070                     ?_motor_control:	
   724                           ; 1 bytes @ 0x0
   725                           
   726     0070                     ?_main:	
   727                           ; 1 bytes @ 0x0
   728                           
   729     0070                     ?_isr:	
   730                           ; 1 bytes @ 0x0
   731                           
   732     0070                     ??_isr:	
   733                           ; 1 bytes @ 0x0
   734                           
   735                           
   736                           ; 1 bytes @ 0x0
   737     0070                     	ds	4
   738     0074                     ?_analogWrite_8bits:
   739     0074                     ?_limit_pwm:	
   740                           ; 1 bytes @ 0x4
   741                           
   742     0074                     ?_abs:	
   743                           ; 1 bytes @ 0x4
   744                           
   745     0074                     analogWrite_init@frequency:	
   746                           ; 2 bytes @ 0x4
   747                           
   748     0074                     analogWrite_8bits@cp2:	
   749                           ; 1 bytes @ 0x4
   750                           
   751     0074                     limit_pwm@val:	
   752                           ; 1 bytes @ 0x4
   753                           
   754     0074                     read_line_Error@found:	
   755                           ; 2 bytes @ 0x4
   756                           
   757     0074                     ___wmul@product:	
   758                           ; 2 bytes @ 0x4
   759                           
   760     0074                     abs@a:	
   761                           ; 2 bytes @ 0x4
   762                           
   763     0074                     ??_analogWrite_init:	
   764                           ; 2 bytes @ 0x4
   765                           
   766     0074                     ??_Initialize_interrupt:	
   767                           ; 1 bytes @ 0x4
   768                           
   769     0074                     ??_read_line_Error:	
   770                           ; 1 bytes @ 0x4
   771                           
   772     0074                     ??___wmul:	
   773                           ; 1 bytes @ 0x4
   774                           
   775                           
   776                           ; 1 bytes @ 0x4
   777     0074                     	ds	1
   778     0075                     analogWrite_8bits@cp1:
   779     0075                     ??_analogWrite_8bits:	
   780                           ; 1 bytes @ 0x5
   781                           
   782                           
   783                           ; 1 bytes @ 0x5
   784     0075                     	ds	1
   785     0076                     ??_Car_Forward:
   786     0076                     ??_Status_Car:	
   787                           ; 1 bytes @ 0x6
   788                           
   789     0076                     ??_limit_pwm:	
   790                           ; 1 bytes @ 0x6
   791                           
   792                           
   793                           	psect	cstackBANK0
   794     0020                     __pcstackBANK0:	
   795                           ; 1 bytes @ 0x6
   796                           
   797     0020                     ?_Car_Forward:
   798     0020                     ?_Status_Car:	
   799                           ; 1 bytes @ 0x0
   800                           
   801     0020                     ?___wmul:	
   802                           ; 1 bytes @ 0x0
   803                           
   804     0020                     Status_Car@sp1:	
   805                           ; 2 bytes @ 0x0
   806                           
   807     0020                     Car_Forward@pwmL:	
   808                           ; 2 bytes @ 0x0
   809                           
   810     0020                     ___wmul@multiplier:	
   811                           ; 2 bytes @ 0x0
   812                           
   813     0020                     ??_abs:	
   814                           ; 2 bytes @ 0x0
   815                           
   816                           
   817                           ; 1 bytes @ 0x0
   818     0020                     	ds	2
   819     0022                     Status_Car@sp2:
   820     0022                     Car_Forward@pwmR:	
   821                           ; 2 bytes @ 0x2
   822                           
   823     0022                     ___wmul@multiplicand:	
   824                           ; 2 bytes @ 0x2
   825                           
   826                           
   827                           ; 2 bytes @ 0x2
   828     0022                     	ds	2
   829     0024                     Status_Car@status:
   830                           
   831                           ; 1 bytes @ 0x4
   832     0024                     	ds	1
   833     0025                     ??_motor_control:
   834                           
   835                           ; 1 bytes @ 0x5
   836     0025                     	ds	2
   837     0027                     motor_control@d_error:
   838                           
   839                           ; 2 bytes @ 0x7
   840     0027                     	ds	2
   841     0029                     _motor_control$155:
   842                           
   843                           ; 2 bytes @ 0x9
   844     0029                     	ds	2
   845     002B                     _motor_control$156:
   846                           
   847                           ; 2 bytes @ 0xB
   848     002B                     	ds	2
   849     002D                     _motor_control$157:
   850                           
   851                           ; 2 bytes @ 0xD
   852     002D                     	ds	2
   853     002F                     _motor_control$158:
   854                           
   855                           ; 2 bytes @ 0xF
   856     002F                     	ds	2
   857     0031                     _motor_control$159:
   858                           
   859                           ; 2 bytes @ 0x11
   860     0031                     	ds	2
   861     0033                     _motor_control$160:
   862                           
   863                           ; 2 bytes @ 0x13
   864     0033                     	ds	2
   865     0035                     _motor_control$161:
   866                           
   867                           ; 2 bytes @ 0x15
   868     0035                     	ds	2
   869     0037                     _motor_control$162:
   870                           
   871                           ; 2 bytes @ 0x17
   872     0037                     	ds	2
   873     0039                     motor_control@kp_local:
   874                           
   875                           ; 2 bytes @ 0x19
   876     0039                     	ds	2
   877     003B                     motor_control@kd_local:
   878                           
   879                           ; 2 bytes @ 0x1B
   880     003B                     	ds	2
   881     003D                     motor_control@base:
   882                           
   883                           ; 2 bytes @ 0x1D
   884     003D                     	ds	2
   885     003F                     motor_control@correction:
   886                           
   887                           ; 2 bytes @ 0x1F
   888     003F                     	ds	2
   889     0041                     motor_control@pwmL:
   890                           
   891                           ; 2 bytes @ 0x21
   892     0041                     	ds	2
   893     0043                     motor_control@pwmR:
   894                           
   895                           ; 2 bytes @ 0x23
   896     0043                     	ds	2
   897     0045                     ??_main:
   898                           
   899                           ; 1 bytes @ 0x25
   900     0045                     	ds	2
   901                           
   902                           	psect	maintext
   903     0320                     __pmaintext:	
   904 ;;
   905 ;;Main: autosize = 0, tempsize = 2, incstack = 0, save=0
   906 ;;
   907 ;; *************** function _main *****************
   908 ;; Defined at:
   909 ;;		line 13 in file "main.c"
   910 ;; Parameters:    Size  Location     Type
   911 ;;		None
   912 ;; Auto vars:     Size  Location     Type
   913 ;;		None
   914 ;; Return value:  Size  Location     Type
   915 ;;                  1    wreg      void 
   916 ;; Registers used:
   917 ;;		wreg, status,2, status,0, pclath, btemp1, cstack
   918 ;; Tracked objects:
   919 ;;		On entry : B00/0
   920 ;;		On exit  : 0/0
   921 ;;		Unchanged: 0/0
   922 ;; Data sizes:     COMMON   BANK0   BANK1   BANK3   BANK2
   923 ;;      Params:         0       0       0       0       0
   924 ;;      Locals:         0       0       0       0       0
   925 ;;      Temps:          0       2       0       0       0
   926 ;;      Totals:         0       2       0       0       0
   927 ;;Total ram usage:        2 bytes
   928 ;; Hardware stack levels required when called: 3
   929 ;; This function calls:
   930 ;;		_Car_Forward
   931 ;;		_Initialize_interrupt
   932 ;;		_Status_Car
   933 ;;		_analogWrite_init
   934 ;;		_motor_control
   935 ;;		_read_line_Error
   936 ;; This function is called by:
   937 ;;		Startup code after reset
   938 ;; This function uses a non-reentrant model
   939 ;;
   940                           
   941     0320                     _main:	
   942                           ;psect for function _main
   943                           
   944     0320                     l1758:	
   945                           ;incstack = 0
   946                           ; Regs used in _main: [wreg+status,2+status,0+pclath+btemp1+cstack]
   947                           
   948                           
   949                           ;main.c: 16:     ANSEL = 0;
   950     0320  1683               	bsf	3,5	;RP0=1, select bank3
   951     0321  1703               	bsf	3,6	;RP1=1, select bank3
   952     0322  0188               	clrf	8	;volatile
   953                           
   954                           ;main.c: 17:     ANSELH = 0;
   955     0323  0189               	clrf	9	;volatile
   956     0324                     l1760:
   957                           
   958                           ;main.c: 19:     TRISB = 0xFF;
   959     0324  30FF               	movlw	255
   960     0325  1683               	bsf	3,5	;RP0=1, select bank1
   961     0326  1303               	bcf	3,6	;RP1=0, select bank1
   962     0327  0086               	movwf	6	;volatile
   963     0328                     l1762:
   964                           
   965                           ;main.c: 20:     TRISD = 0xF0;
   966     0328  30F0               	movlw	240
   967     0329  0088               	movwf	8	;volatile
   968     032A                     l1764:
   969                           
   970                           ;main.c: 24:     TRISC = 0xF8;
   971     032A  30F8               	movlw	248
   972     032B  0087               	movwf	7	;volatile
   973                           
   974                           ;main.c: 25:     TRISE = 0x00;
   975     032C  0189               	clrf	9	;volatile
   976                           
   977                           ;main.c: 26:     PORTB = 0x00;
   978     032D  1283               	bcf	3,5	;RP0=0, select bank0
   979     032E  1303               	bcf	3,6	;RP1=0, select bank0
   980     032F  0186               	clrf	6	;volatile
   981                           
   982                           ;main.c: 29:     PORTD = 0x00;
   983     0330  0188               	clrf	8	;volatile
   984     0331                     l1766:
   985                           
   986                           ;main.c: 32:     analogWrite_init(255);
   987     0331  30FF               	movlw	255
   988     0332  120A  118A  25E3  120A  118A  	fcall	_analogWrite_init
   989     0337                     l1768:
   990                           
   991                           ;main.c: 34:     Initialize_interrupt();
   992     0337  120A  118A  2634  120A  118A  	fcall	_Initialize_interrupt
   993     033C                     l1770:
   994                           
   995                           ;main.c: 37:         PORTE = 0x00;
   996     033C  1283               	bcf	3,5	;RP0=0, select bank0
   997     033D  1303               	bcf	3,6	;RP1=0, select bank0
   998     033E  0189               	clrf	9	;volatile
   999     033F                     l1772:
  1000                           
  1001                           ;main.c: 39:         if (RD4 == 1) {
  1002     033F  1E08               	btfss	8,4	;volatile
  1003     0340  2B42               	goto	u1931
  1004     0341  2B43               	goto	u1930
  1005     0342                     u1931:
  1006     0342  2B61               	goto	l66
  1007     0343                     u1930:
  1008     0343                     l1774:
  1009                           
  1010                           ;main.c: 40:             _delay((unsigned long)((20)*(20000000/4000.0)));
  1011     0343  3082               	movlw	130
  1012     0344  1283               	bcf	3,5	;RP0=0, select bank0
  1013     0345  1303               	bcf	3,6	;RP1=0, select bank0
  1014     0346  00C6               	movwf	??_main+1
  1015     0347  30DD               	movlw	221
  1016     0348  00C5               	movwf	??_main
  1017     0349                     u2167:
  1018     0349  0BC5               	decfsz	??_main,f
  1019     034A  2B49               	goto	u2167
  1020     034B  0BC6               	decfsz	??_main+1,f
  1021     034C  2B49               	goto	u2167
  1022     034D                     l1776:
  1023                           
  1024                           ;main.c: 41:             if (RD4 == 1) {
  1025     034D  1283               	bcf	3,5	;RP0=0, select bank0
  1026     034E  1303               	bcf	3,6	;RP1=0, select bank0
  1027     034F  1E08               	btfss	8,4	;volatile
  1028     0350  2B52               	goto	u1941
  1029     0351  2B53               	goto	u1940
  1030     0352                     u1941:
  1031     0352  2B94               	goto	l1798
  1032     0353                     u1940:
  1033     0353                     l1778:
  1034                           
  1035                           ;main.c: 42:                 autocar = 0;
  1036     0353  01F8               	clrf	_autocar
  1037                           
  1038                           ;main.c: 43:                 drivercar = 0;
  1039     0354  01F9               	clrf	_drivercar
  1040     0355                     l1780:
  1041                           
  1042                           ;main.c: 44:                 Car_Forward(0, 0);
  1043     0355  3000               	movlw	0
  1044     0356  00A0               	movwf	Car_Forward@pwmL
  1045     0357  00A1               	movwf	Car_Forward@pwmL+1
  1046     0358  3000               	movlw	0
  1047     0359  00A2               	movwf	Car_Forward@pwmR
  1048     035A  00A3               	movwf	Car_Forward@pwmR+1
  1049     035B  120A  118A  261D  120A  118A  	fcall	_Car_Forward
  1050     0360  2B94               	goto	l1798
  1051     0361                     l66:
  1052     0361  1F08               	btfss	8,6	;volatile
  1053     0362  2B64               	goto	u1951
  1054     0363  2B65               	goto	u1950
  1055     0364                     u1951:
  1056     0364  2B79               	goto	l69
  1057     0365                     u1950:
  1058     0365                     l1782:
  1059                           
  1060                           ;main.c: 47:             _delay((unsigned long)((20)*(20000000/4000.0)));
  1061     0365  3082               	movlw	130
  1062     0366  1283               	bcf	3,5	;RP0=0, select bank0
  1063     0367  1303               	bcf	3,6	;RP1=0, select bank0
  1064     0368  00C6               	movwf	??_main+1
  1065     0369  30DD               	movlw	221
  1066     036A  00C5               	movwf	??_main
  1067     036B                     u2177:
  1068     036B  0BC5               	decfsz	??_main,f
  1069     036C  2B6B               	goto	u2177
  1070     036D  0BC6               	decfsz	??_main+1,f
  1071     036E  2B6B               	goto	u2177
  1072     036F                     l1784:
  1073                           
  1074                           ;main.c: 48:             if (RD6 == 1) {
  1075     036F  1283               	bcf	3,5	;RP0=0, select bank0
  1076     0370  1303               	bcf	3,6	;RP1=0, select bank0
  1077     0371  1F08               	btfss	8,6	;volatile
  1078     0372  2B74               	goto	u1961
  1079     0373  2B75               	goto	u1960
  1080     0374                     u1961:
  1081     0374  2B94               	goto	l1798
  1082     0375                     u1960:
  1083     0375                     l1786:
  1084                           
  1085                           ;main.c: 49:                 autocar = 0;
  1086     0375  01F8               	clrf	_autocar
  1087     0376                     l1788:
  1088                           
  1089                           ;main.c: 50:                 drivercar = 1;
  1090     0376  3001               	movlw	1
  1091     0377  00F9               	movwf	_drivercar
  1092     0378  2B94               	goto	l1798
  1093     0379                     l69:
  1094     0379  1E88               	btfss	8,5	;volatile
  1095     037A  2B7C               	goto	u1971
  1096     037B  2B7D               	goto	u1970
  1097     037C                     u1971:
  1098     037C  2B94               	goto	l1798
  1099     037D                     u1970:
  1100     037D                     l1790:
  1101                           
  1102                           ;main.c: 53:             _delay((unsigned long)((20)*(20000000/4000.0)));
  1103     037D  3082               	movlw	130
  1104     037E  1283               	bcf	3,5	;RP0=0, select bank0
  1105     037F  1303               	bcf	3,6	;RP1=0, select bank0
  1106     0380  00C6               	movwf	??_main+1
  1107     0381  30DD               	movlw	221
  1108     0382  00C5               	movwf	??_main
  1109     0383                     u2187:
  1110     0383  0BC5               	decfsz	??_main,f
  1111     0384  2B83               	goto	u2187
  1112     0385  0BC6               	decfsz	??_main+1,f
  1113     0386  2B83               	goto	u2187
  1114     0387                     l1792:
  1115                           
  1116                           ;main.c: 54:             if (RD5 == 1) {
  1117     0387  1283               	bcf	3,5	;RP0=0, select bank0
  1118     0388  1303               	bcf	3,6	;RP1=0, select bank0
  1119     0389  1E88               	btfss	8,5	;volatile
  1120     038A  2B8C               	goto	u1981
  1121     038B  2B8D               	goto	u1980
  1122     038C                     u1981:
  1123     038C  2B94               	goto	l1798
  1124     038D                     u1980:
  1125     038D                     l1794:
  1126                           
  1127                           ;main.c: 55:                 autocar = 1;
  1128     038D  3001               	movlw	1
  1129     038E  00F8               	movwf	_autocar
  1130     038F                     l1796:
  1131                           
  1132                           ;main.c: 56:                 drivercar = 0;
  1133     038F  01F9               	clrf	_drivercar
  1134     0390                     l74:	
  1135                           ;main.c: 57:                 while (RD5 == 1);
  1136                           
  1137     0390  1A88               	btfsc	8,5	;volatile
  1138     0391  2B93               	goto	u1991
  1139     0392  2B94               	goto	u1990
  1140     0393                     u1991:
  1141     0393  2B90               	goto	l74
  1142     0394                     u1990:
  1143     0394                     l1798:
  1144                           
  1145                           ;main.c: 60:         if (autocar == 1 && drivercar == 0) {
  1146     0394  0378               	decf	_autocar,w
  1147     0395  1D03               	btfss	3,2
  1148     0396  2B98               	goto	u2001
  1149     0397  2B99               	goto	u2000
  1150     0398                     u2001:
  1151     0398  2C7C               	goto	l1848
  1152     0399                     u2000:
  1153     0399                     l1800:
  1154     0399  0879               	movf	_drivercar,w
  1155     039A  1D03               	btfss	3,2
  1156     039B  2B9D               	goto	u2011
  1157     039C  2B9E               	goto	u2010
  1158     039D                     u2011:
  1159     039D  2C7C               	goto	l1848
  1160     039E                     u2010:
  1161     039E                     l1802:
  1162                           
  1163                           ;main.c: 62:                 read_line_Error();
  1164     039E  120A  118A  248A  120A  118A  	fcall	_read_line_Error
  1165     03A3                     l1804:
  1166                           
  1167                           ;main.c: 63:                 motor_control();
  1168     03A3  120A  118A  2025  120A  118A  	fcall	_motor_control
  1169     03A8                     l1806:
  1170                           
  1171                           ;main.c: 64:                 if (RD4 == 1) {
  1172     03A8  1283               	bcf	3,5	;RP0=0, select bank0
  1173     03A9  1303               	bcf	3,6	;RP1=0, select bank0
  1174     03AA  1E08               	btfss	8,4	;volatile
  1175     03AB  2BAD               	goto	u2021
  1176     03AC  2BAE               	goto	u2020
  1177     03AD                     u2021:
  1178     03AD  2B9E               	goto	l1802
  1179     03AE                     u2020:
  1180     03AE                     l1808:
  1181                           
  1182                           ;main.c: 65:                     _delay((unsigned long)((20)*(20000000/4000.0)));
  1183     03AE  3082               	movlw	130
  1184     03AF  1283               	bcf	3,5	;RP0=0, select bank0
  1185     03B0  1303               	bcf	3,6	;RP1=0, select bank0
  1186     03B1  00C6               	movwf	??_main+1
  1187     03B2  30DD               	movlw	221
  1188     03B3  00C5               	movwf	??_main
  1189     03B4                     u2197:
  1190     03B4  0BC5               	decfsz	??_main,f
  1191     03B5  2BB4               	goto	u2197
  1192     03B6  0BC6               	decfsz	??_main+1,f
  1193     03B7  2BB4               	goto	u2197
  1194     03B8                     l1810:
  1195                           
  1196                           ;main.c: 66:                     if (RD4 == 1) {
  1197     03B8  1283               	bcf	3,5	;RP0=0, select bank0
  1198     03B9  1303               	bcf	3,6	;RP1=0, select bank0
  1199     03BA  1E08               	btfss	8,4	;volatile
  1200     03BB  2BBD               	goto	u2031
  1201     03BC  2BBE               	goto	u2030
  1202     03BD                     u2031:
  1203     03BD  2B9E               	goto	l1802
  1204     03BE                     u2030:
  1205     03BE                     l1812:
  1206                           
  1207                           ;main.c: 67:                         autocar = 0;
  1208     03BE  01F8               	clrf	_autocar
  1209                           
  1210                           ;main.c: 68:                         drivercar = 0;
  1211     03BF  01F9               	clrf	_drivercar
  1212     03C0                     l1814:
  1213                           
  1214                           ;main.c: 69:                         Car_Forward(0, 0);
  1215     03C0  3000               	movlw	0
  1216     03C1  00A0               	movwf	Car_Forward@pwmL
  1217     03C2  00A1               	movwf	Car_Forward@pwmL+1
  1218     03C3  3000               	movlw	0
  1219     03C4  00A2               	movwf	Car_Forward@pwmR
  1220     03C5  00A3               	movwf	Car_Forward@pwmR+1
  1221     03C6  120A  118A  261D  120A  118A  	fcall	_Car_Forward
  1222                           
  1223                           ;main.c: 70:                         break;
  1224     03CB  2C7C               	goto	l1848
  1225     03CC                     l84:
  1226                           
  1227                           ;main.c: 78:             if (RC3 == 1) {
  1228     03CC  1283               	bcf	3,5	;RP0=0, select bank0
  1229     03CD  1303               	bcf	3,6	;RP1=0, select bank0
  1230     03CE  1D87               	btfss	7,3	;volatile
  1231     03CF  2BD1               	goto	u2041
  1232     03D0  2BD2               	goto	u2040
  1233     03D1                     u2041:
  1234     03D1  2BF1               	goto	l85
  1235     03D2                     u2040:
  1236     03D2                     l1816:
  1237                           
  1238                           ;main.c: 79:                 _delay((unsigned long)((20)*(20000000/4000.0)));
  1239     03D2  3082               	movlw	130
  1240     03D3  1283               	bcf	3,5	;RP0=0, select bank0
  1241     03D4  1303               	bcf	3,6	;RP1=0, select bank0
  1242     03D5  00C6               	movwf	??_main+1
  1243     03D6  30DD               	movlw	221
  1244     03D7  00C5               	movwf	??_main
  1245     03D8                     u2207:
  1246     03D8  0BC5               	decfsz	??_main,f
  1247     03D9  2BD8               	goto	u2207
  1248     03DA  0BC6               	decfsz	??_main+1,f
  1249     03DB  2BD8               	goto	u2207
  1250     03DC                     l1818:
  1251                           
  1252                           ;main.c: 80:                 if (RC3 == 1) {
  1253     03DC  1283               	bcf	3,5	;RP0=0, select bank0
  1254     03DD  1303               	bcf	3,6	;RP1=0, select bank0
  1255     03DE  1D87               	btfss	7,3	;volatile
  1256     03DF  2BE1               	goto	u2051
  1257     03E0  2BE2               	goto	u2050
  1258     03E1                     u2051:
  1259     03E1  2C7C               	goto	l1848
  1260     03E2                     u2050:
  1261     03E2                     l1820:
  1262                           
  1263                           ;main.c: 81:                     Status_Car(0x05, 150, 150);
  1264     03E2  3096               	movlw	150
  1265     03E3  00A0               	movwf	Status_Car@sp1
  1266     03E4  3000               	movlw	0
  1267     03E5  00A1               	movwf	Status_Car@sp1+1
  1268     03E6  3096               	movlw	150
  1269     03E7  00A2               	movwf	Status_Car@sp2
  1270     03E8  3000               	movlw	0
  1271     03E9  00A3               	movwf	Status_Car@sp2+1
  1272     03EA  3005               	movlw	5
  1273     03EB  120A  118A  260D  120A  118A  	fcall	_Status_Car
  1274     03F0  2C7C               	goto	l1848
  1275     03F1                     l85:
  1276     03F1  1E07               	btfss	7,4	;volatile
  1277     03F2  2BF4               	goto	u2061
  1278     03F3  2BF5               	goto	u2060
  1279     03F4                     u2061:
  1280     03F4  2C14               	goto	l88
  1281     03F5                     u2060:
  1282     03F5                     l1822:
  1283                           
  1284                           ;main.c: 84:                 _delay((unsigned long)((20)*(20000000/4000.0)));
  1285     03F5  3082               	movlw	130
  1286     03F6  1283               	bcf	3,5	;RP0=0, select bank0
  1287     03F7  1303               	bcf	3,6	;RP1=0, select bank0
  1288     03F8  00C6               	movwf	??_main+1
  1289     03F9  30DD               	movlw	221
  1290     03FA  00C5               	movwf	??_main
  1291     03FB                     u2217:
  1292     03FB  0BC5               	decfsz	??_main,f
  1293     03FC  2BFB               	goto	u2217
  1294     03FD  0BC6               	decfsz	??_main+1,f
  1295     03FE  2BFB               	goto	u2217
  1296     03FF                     l1824:
  1297                           
  1298                           ;main.c: 85:                 if (RC4 == 1) {
  1299     03FF  1283               	bcf	3,5	;RP0=0, select bank0
  1300     0400  1303               	bcf	3,6	;RP1=0, select bank0
  1301     0401  1E07               	btfss	7,4	;volatile
  1302     0402  2C04               	goto	u2071
  1303     0403  2C05               	goto	u2070
  1304     0404                     u2071:
  1305     0404  2C7C               	goto	l1848
  1306     0405                     u2070:
  1307     0405                     l1826:
  1308                           
  1309                           ;main.c: 86:                     Status_Car(0x0A, 150, 150);
  1310     0405  3096               	movlw	150
  1311     0406  00A0               	movwf	Status_Car@sp1
  1312     0407  3000               	movlw	0
  1313     0408  00A1               	movwf	Status_Car@sp1+1
  1314     0409  3096               	movlw	150
  1315     040A  00A2               	movwf	Status_Car@sp2
  1316     040B  3000               	movlw	0
  1317     040C  00A3               	movwf	Status_Car@sp2+1
  1318     040D  300A               	movlw	10
  1319     040E  120A  118A  260D  120A  118A  	fcall	_Status_Car
  1320     0413  2C7C               	goto	l1848
  1321     0414                     l88:
  1322     0414  1E87               	btfss	7,5	;volatile
  1323     0415  2C17               	goto	u2081
  1324     0416  2C18               	goto	u2080
  1325     0417                     u2081:
  1326     0417  2C37               	goto	l91
  1327     0418                     u2080:
  1328     0418                     l1828:
  1329                           
  1330                           ;main.c: 89:                 _delay((unsigned long)((20)*(20000000/4000.0)));
  1331     0418  3082               	movlw	130
  1332     0419  1283               	bcf	3,5	;RP0=0, select bank0
  1333     041A  1303               	bcf	3,6	;RP1=0, select bank0
  1334     041B  00C6               	movwf	??_main+1
  1335     041C  30DD               	movlw	221
  1336     041D  00C5               	movwf	??_main
  1337     041E                     u2227:
  1338     041E  0BC5               	decfsz	??_main,f
  1339     041F  2C1E               	goto	u2227
  1340     0420  0BC6               	decfsz	??_main+1,f
  1341     0421  2C1E               	goto	u2227
  1342     0422                     l1830:
  1343                           
  1344                           ;main.c: 90:                 if (RC5 == 1) {
  1345     0422  1283               	bcf	3,5	;RP0=0, select bank0
  1346     0423  1303               	bcf	3,6	;RP1=0, select bank0
  1347     0424  1E87               	btfss	7,5	;volatile
  1348     0425  2C27               	goto	u2091
  1349     0426  2C28               	goto	u2090
  1350     0427                     u2091:
  1351     0427  2C7C               	goto	l1848
  1352     0428                     u2090:
  1353     0428                     l1832:
  1354                           
  1355                           ;main.c: 91:                     Status_Car(0x09, 150, 150);
  1356     0428  3096               	movlw	150
  1357     0429  00A0               	movwf	Status_Car@sp1
  1358     042A  3000               	movlw	0
  1359     042B  00A1               	movwf	Status_Car@sp1+1
  1360     042C  3096               	movlw	150
  1361     042D  00A2               	movwf	Status_Car@sp2
  1362     042E  3000               	movlw	0
  1363     042F  00A3               	movwf	Status_Car@sp2+1
  1364     0430  3009               	movlw	9
  1365     0431  120A  118A  260D  120A  118A  	fcall	_Status_Car
  1366     0436  2C7C               	goto	l1848
  1367     0437                     l91:
  1368     0437  1F07               	btfss	7,6	;volatile
  1369     0438  2C3A               	goto	u2101
  1370     0439  2C3B               	goto	u2100
  1371     043A                     u2101:
  1372     043A  2C5A               	goto	l94
  1373     043B                     u2100:
  1374     043B                     l1834:
  1375                           
  1376                           ;main.c: 94:                 _delay((unsigned long)((20)*(20000000/4000.0)));
  1377     043B  3082               	movlw	130
  1378     043C  1283               	bcf	3,5	;RP0=0, select bank0
  1379     043D  1303               	bcf	3,6	;RP1=0, select bank0
  1380     043E  00C6               	movwf	??_main+1
  1381     043F  30DD               	movlw	221
  1382     0440  00C5               	movwf	??_main
  1383     0441                     u2237:
  1384     0441  0BC5               	decfsz	??_main,f
  1385     0442  2C41               	goto	u2237
  1386     0443  0BC6               	decfsz	??_main+1,f
  1387     0444  2C41               	goto	u2237
  1388     0445                     l1836:
  1389                           
  1390                           ;main.c: 95:                 if (RC6 == 1) {
  1391     0445  1283               	bcf	3,5	;RP0=0, select bank0
  1392     0446  1303               	bcf	3,6	;RP1=0, select bank0
  1393     0447  1F07               	btfss	7,6	;volatile
  1394     0448  2C4A               	goto	u2111
  1395     0449  2C4B               	goto	u2110
  1396     044A                     u2111:
  1397     044A  2C7C               	goto	l1848
  1398     044B                     u2110:
  1399     044B                     l1838:
  1400                           
  1401                           ;main.c: 96:                     Status_Car(0x06, 150, 150);
  1402     044B  3096               	movlw	150
  1403     044C  00A0               	movwf	Status_Car@sp1
  1404     044D  3000               	movlw	0
  1405     044E  00A1               	movwf	Status_Car@sp1+1
  1406     044F  3096               	movlw	150
  1407     0450  00A2               	movwf	Status_Car@sp2
  1408     0451  3000               	movlw	0
  1409     0452  00A3               	movwf	Status_Car@sp2+1
  1410     0453  3006               	movlw	6
  1411     0454  120A  118A  260D  120A  118A  	fcall	_Status_Car
  1412     0459  2C7C               	goto	l1848
  1413     045A                     l94:
  1414                           
  1415                           ;main.c: 99:                 if (RD4 == 1) {
  1416     045A  1E08               	btfss	8,4	;volatile
  1417     045B  2C5D               	goto	u2121
  1418     045C  2C5E               	goto	u2120
  1419     045D                     u2121:
  1420     045D  2C7C               	goto	l1848
  1421     045E                     u2120:
  1422     045E                     l1840:
  1423                           
  1424                           ;main.c: 100:                 _delay((unsigned long)((20)*(20000000/4000.0)));
  1425     045E  3082               	movlw	130
  1426     045F  1283               	bcf	3,5	;RP0=0, select bank0
  1427     0460  1303               	bcf	3,6	;RP1=0, select bank0
  1428     0461  00C6               	movwf	??_main+1
  1429     0462  30DD               	movlw	221
  1430     0463  00C5               	movwf	??_main
  1431     0464                     u2247:
  1432     0464  0BC5               	decfsz	??_main,f
  1433     0465  2C64               	goto	u2247
  1434     0466  0BC6               	decfsz	??_main+1,f
  1435     0467  2C64               	goto	u2247
  1436     0468                     l1842:
  1437                           
  1438                           ;main.c: 101:                 if (RD4 == 1) {
  1439     0468  1283               	bcf	3,5	;RP0=0, select bank0
  1440     0469  1303               	bcf	3,6	;RP1=0, select bank0
  1441     046A  1E08               	btfss	8,4	;volatile
  1442     046B  2C6D               	goto	u2131
  1443     046C  2C6E               	goto	u2130
  1444     046D                     u2131:
  1445     046D  2C7C               	goto	l1848
  1446     046E                     u2130:
  1447     046E                     l1844:
  1448                           
  1449                           ;main.c: 102:                     autocar = 0;
  1450     046E  01F8               	clrf	_autocar
  1451                           
  1452                           ;main.c: 103:                     drivercar = 0;
  1453     046F  01F9               	clrf	_drivercar
  1454     0470                     l1846:
  1455                           
  1456                           ;main.c: 104:                     Car_Forward(0, 0);
  1457     0470  3000               	movlw	0
  1458     0471  00A0               	movwf	Car_Forward@pwmL
  1459     0472  00A1               	movwf	Car_Forward@pwmL+1
  1460     0473  3000               	movlw	0
  1461     0474  00A2               	movwf	Car_Forward@pwmR
  1462     0475  00A3               	movwf	Car_Forward@pwmR+1
  1463     0476  120A  118A  261D  120A  118A  	fcall	_Car_Forward
  1464                           
  1465                           ;main.c: 105:                     break;
  1466     047B  2B3C               	goto	l1770
  1467     047C                     l1848:
  1468                           
  1469                           ;main.c: 77:         while (autocar == 0 && drivercar == 1) {
  1470     047C  0878               	movf	_autocar,w
  1471     047D  1D03               	btfss	3,2
  1472     047E  2C80               	goto	u2141
  1473     047F  2C81               	goto	u2140
  1474     0480                     u2141:
  1475     0480  2B3C               	goto	l1770
  1476     0481                     u2140:
  1477     0481                     l1850:
  1478     0481  0379               	decf	_drivercar,w
  1479     0482  1903               	btfsc	3,2
  1480     0483  2C85               	goto	u2151
  1481     0484  2C86               	goto	u2150
  1482     0485                     u2151:
  1483     0485  2BCC               	goto	l84
  1484     0486                     u2150:
  1485     0486  2B3C               	goto	l1770
  1486     0487  120A  118A  280C   	ljmp	start
  1487     048A                     __end_of_main:
  1488                           
  1489                           	psect	text1
  1490     048A                     __ptext1:	
  1491 ;; *************** function _read_line_Error *****************
  1492 ;; Defined at:
  1493 ;;		line 21 in file "SSLINE.c"
  1494 ;; Parameters:    Size  Location     Type
  1495 ;;		None
  1496 ;; Auto vars:     Size  Location     Type
  1497 ;;  found           2    4[COMMON] int 
  1498 ;; Return value:  Size  Location     Type
  1499 ;;                  1    wreg      void 
  1500 ;; Registers used:
  1501 ;;		wreg, status,2, status,0
  1502 ;; Tracked objects:
  1503 ;;		On entry : 0/0
  1504 ;;		On exit  : 0/0
  1505 ;;		Unchanged: 0/0
  1506 ;; Data sizes:     COMMON   BANK0   BANK1   BANK3   BANK2
  1507 ;;      Params:         0       0       0       0       0
  1508 ;;      Locals:         2       0       0       0       0
  1509 ;;      Temps:          0       0       0       0       0
  1510 ;;      Totals:         2       0       0       0       0
  1511 ;;Total ram usage:        2 bytes
  1512 ;; Hardware stack levels used: 1
  1513 ;; Hardware stack levels required when called: 1
  1514 ;; This function calls:
  1515 ;;		Nothing
  1516 ;; This function is called by:
  1517 ;;		_main
  1518 ;; This function uses a non-reentrant model
  1519 ;;
  1520                           
  1521     048A                     _read_line_Error:	
  1522                           ;psect for function _read_line_Error
  1523                           
  1524     048A                     l1344:	
  1525                           ;incstack = 0
  1526                           ; Regs used in _read_line_Error: [wreg+status,2+status,0]
  1527                           
  1528                           
  1529                           ;SSLINE.c: 22:     int found = 0;
  1530     048A  01F4               	clrf	read_line_Error@found
  1531     048B  01F5               	clrf	read_line_Error@found+1
  1532     048C                     l1346:
  1533                           
  1534                           ;SSLINE.c: 23:     if (RB3 == 1 && RB2 == 1 && RD0 == 1 ) {
  1535     048C  1283               	bcf	3,5	;RP0=0, select bank0
  1536     048D  1303               	bcf	3,6	;RP1=0, select bank0
  1537     048E  1D86               	btfss	6,3	;volatile
  1538     048F  2C91               	goto	u961
  1539     0490  2C92               	goto	u960
  1540     0491                     u961:
  1541     0491  2CA3               	goto	l218
  1542     0492                     u960:
  1543     0492                     l1348:
  1544     0492  1D06               	btfss	6,2	;volatile
  1545     0493  2C95               	goto	u971
  1546     0494  2C96               	goto	u970
  1547     0495                     u971:
  1548     0495  2CA3               	goto	l218
  1549     0496                     u970:
  1550     0496                     l1350:
  1551     0496  1C08               	btfss	8,0	;volatile
  1552     0497  2C99               	goto	u981
  1553     0498  2C9A               	goto	u980
  1554     0499                     u981:
  1555     0499  2CA3               	goto	l218
  1556     049A                     u980:
  1557     049A                     l1352:
  1558                           
  1559                           ;SSLINE.c: 24:         Error = 7;
  1560     049A  3007               	movlw	7
  1561     049B  00D1               	movwf	_Error
  1562     049C  3000               	movlw	0
  1563     049D  00D2               	movwf	_Error+1
  1564                           
  1565                           ;SSLINE.c: 25:         found = 1;
  1566     049E  3001               	movlw	1
  1567     049F  00F4               	movwf	read_line_Error@found
  1568     04A0  3000               	movlw	0
  1569     04A1  00F5               	movwf	read_line_Error@found+1
  1570                           
  1571                           ;SSLINE.c: 26:     } else if (RB3 == 1 && RB2 == 1 && RD5 == 1 ) {
  1572     04A2  2D60               	goto	l1398
  1573     04A3                     l218:
  1574     04A3  1D86               	btfss	6,3	;volatile
  1575     04A4  2CA6               	goto	u991
  1576     04A5  2CA7               	goto	u990
  1577     04A6                     u991:
  1578     04A6  2CB8               	goto	l220
  1579     04A7                     u990:
  1580     04A7                     l1354:
  1581     04A7  1D06               	btfss	6,2	;volatile
  1582     04A8  2CAA               	goto	u1001
  1583     04A9  2CAB               	goto	u1000
  1584     04AA                     u1001:
  1585     04AA  2CB8               	goto	l220
  1586     04AB                     u1000:
  1587     04AB                     l1356:
  1588     04AB  1E88               	btfss	8,5	;volatile
  1589     04AC  2CAE               	goto	u1011
  1590     04AD  2CAF               	goto	u1010
  1591     04AE                     u1011:
  1592     04AE  2CB8               	goto	l220
  1593     04AF                     u1010:
  1594     04AF                     l1358:
  1595                           
  1596                           ;SSLINE.c: 27:         Error = -7;
  1597     04AF  30F9               	movlw	249
  1598     04B0  00D1               	movwf	_Error
  1599     04B1  30FF               	movlw	255
  1600     04B2  00D2               	movwf	_Error+1
  1601                           
  1602                           ;SSLINE.c: 28:         found = 1;
  1603     04B3  3001               	movlw	1
  1604     04B4  00F4               	movwf	read_line_Error@found
  1605     04B5  3000               	movlw	0
  1606     04B6  00F5               	movwf	read_line_Error@found+1
  1607                           
  1608                           ;SSLINE.c: 29:     } else if (RB5 == 1) {
  1609     04B7  2D60               	goto	l1398
  1610     04B8                     l220:
  1611     04B8  1E86               	btfss	6,5	;volatile
  1612     04B9  2CBB               	goto	u1021
  1613     04BA  2CBC               	goto	u1020
  1614     04BB                     u1021:
  1615     04BB  2CC5               	goto	l222
  1616     04BC                     u1020:
  1617     04BC                     l1360:
  1618                           
  1619                           ;SSLINE.c: 30:         Error = -5;
  1620     04BC  30FB               	movlw	251
  1621     04BD  00D1               	movwf	_Error
  1622     04BE  30FF               	movlw	255
  1623     04BF  00D2               	movwf	_Error+1
  1624                           
  1625                           ;SSLINE.c: 31:         found = 1;
  1626     04C0  3001               	movlw	1
  1627     04C1  00F4               	movwf	read_line_Error@found
  1628     04C2  3000               	movlw	0
  1629     04C3  00F5               	movwf	read_line_Error@found+1
  1630                           
  1631                           ;SSLINE.c: 32:     } else if (RB0 == 1) {
  1632     04C4  2D60               	goto	l1398
  1633     04C5                     l222:
  1634     04C5  1C06               	btfss	6,0	;volatile
  1635     04C6  2CC8               	goto	u1031
  1636     04C7  2CC9               	goto	u1030
  1637     04C8                     u1031:
  1638     04C8  2CD2               	goto	l224
  1639     04C9                     u1030:
  1640     04C9                     l1362:
  1641                           
  1642                           ;SSLINE.c: 33:         Error = 5;
  1643     04C9  3005               	movlw	5
  1644     04CA  00D1               	movwf	_Error
  1645     04CB  3000               	movlw	0
  1646     04CC  00D2               	movwf	_Error+1
  1647                           
  1648                           ;SSLINE.c: 34:         found = 1;
  1649     04CD  3001               	movlw	1
  1650     04CE  00F4               	movwf	read_line_Error@found
  1651     04CF  3000               	movlw	0
  1652     04D0  00F5               	movwf	read_line_Error@found+1
  1653                           
  1654                           ;SSLINE.c: 35:     } else if (RB4 == 1) {
  1655     04D1  2D60               	goto	l1398
  1656     04D2                     l224:
  1657     04D2  1E06               	btfss	6,4	;volatile
  1658     04D3  2CD5               	goto	u1041
  1659     04D4  2CD6               	goto	u1040
  1660     04D5                     u1041:
  1661     04D5  2CDF               	goto	l226
  1662     04D6                     u1040:
  1663     04D6                     l1364:
  1664                           
  1665                           ;SSLINE.c: 36:         Error = -4;
  1666     04D6  30FC               	movlw	252
  1667     04D7  00D1               	movwf	_Error
  1668     04D8  30FF               	movlw	255
  1669     04D9  00D2               	movwf	_Error+1
  1670                           
  1671                           ;SSLINE.c: 37:         found = 1;
  1672     04DA  3001               	movlw	1
  1673     04DB  00F4               	movwf	read_line_Error@found
  1674     04DC  3000               	movlw	0
  1675     04DD  00F5               	movwf	read_line_Error@found+1
  1676                           
  1677                           ;SSLINE.c: 38:     } else if (RB1 == 1) {
  1678     04DE  2D60               	goto	l1398
  1679     04DF                     l226:
  1680     04DF  1C86               	btfss	6,1	;volatile
  1681     04E0  2CE2               	goto	u1051
  1682     04E1  2CE3               	goto	u1050
  1683     04E2                     u1051:
  1684     04E2  2CEC               	goto	l228
  1685     04E3                     u1050:
  1686     04E3                     l1366:
  1687                           
  1688                           ;SSLINE.c: 39:         Error = 4;
  1689     04E3  3004               	movlw	4
  1690     04E4  00D1               	movwf	_Error
  1691     04E5  3000               	movlw	0
  1692     04E6  00D2               	movwf	_Error+1
  1693                           
  1694                           ;SSLINE.c: 40:         found = 1;
  1695     04E7  3001               	movlw	1
  1696     04E8  00F4               	movwf	read_line_Error@found
  1697     04E9  3000               	movlw	0
  1698     04EA  00F5               	movwf	read_line_Error@found+1
  1699                           
  1700                           ;SSLINE.c: 41:     } else if (RB4 == 1 && RB3 == 1) {
  1701     04EB  2D60               	goto	l1398
  1702     04EC                     l228:
  1703     04EC  1E06               	btfss	6,4	;volatile
  1704     04ED  2CEF               	goto	u1061
  1705     04EE  2CF0               	goto	u1060
  1706     04EF                     u1061:
  1707     04EF  2CFD               	goto	l230
  1708     04F0                     u1060:
  1709     04F0                     l1368:
  1710     04F0  1D86               	btfss	6,3	;volatile
  1711     04F1  2CF3               	goto	u1071
  1712     04F2  2CF4               	goto	u1070
  1713     04F3                     u1071:
  1714     04F3  2CFD               	goto	l230
  1715     04F4                     u1070:
  1716     04F4                     l1370:
  1717                           
  1718                           ;SSLINE.c: 42:         Error = -2;
  1719     04F4  30FE               	movlw	254
  1720     04F5  00D1               	movwf	_Error
  1721     04F6  30FF               	movlw	255
  1722     04F7  00D2               	movwf	_Error+1
  1723                           
  1724                           ;SSLINE.c: 43:         found = 1;
  1725     04F8  3001               	movlw	1
  1726     04F9  00F4               	movwf	read_line_Error@found
  1727     04FA  3000               	movlw	0
  1728     04FB  00F5               	movwf	read_line_Error@found+1
  1729                           
  1730                           ;SSLINE.c: 44:     } else if (RB2 == 1 && RB1 == 1) {
  1731     04FC  2D60               	goto	l1398
  1732     04FD                     l230:
  1733     04FD  1D06               	btfss	6,2	;volatile
  1734     04FE  2D00               	goto	u1081
  1735     04FF  2D01               	goto	u1080
  1736     0500                     u1081:
  1737     0500  2D0E               	goto	l232
  1738     0501                     u1080:
  1739     0501                     l1372:
  1740     0501  1C86               	btfss	6,1	;volatile
  1741     0502  2D04               	goto	u1091
  1742     0503  2D05               	goto	u1090
  1743     0504                     u1091:
  1744     0504  2D0E               	goto	l232
  1745     0505                     u1090:
  1746     0505                     l1374:
  1747                           
  1748                           ;SSLINE.c: 45:         Error = 2;
  1749     0505  3002               	movlw	2
  1750     0506  00D1               	movwf	_Error
  1751     0507  3000               	movlw	0
  1752     0508  00D2               	movwf	_Error+1
  1753                           
  1754                           ;SSLINE.c: 46:         found = 1;
  1755     0509  3001               	movlw	1
  1756     050A  00F4               	movwf	read_line_Error@found
  1757     050B  3000               	movlw	0
  1758     050C  00F5               	movwf	read_line_Error@found+1
  1759                           
  1760                           ;SSLINE.c: 47:     } else if (RB3 == 1) {
  1761     050D  2D60               	goto	l1398
  1762     050E                     l232:
  1763     050E  1D86               	btfss	6,3	;volatile
  1764     050F  2D11               	goto	u1101
  1765     0510  2D12               	goto	u1100
  1766     0511                     u1101:
  1767     0511  2D1B               	goto	l234
  1768     0512                     u1100:
  1769     0512                     l1376:
  1770                           
  1771                           ;SSLINE.c: 48:         Error = -1;
  1772     0512  30FF               	movlw	255
  1773     0513  00D1               	movwf	_Error
  1774     0514  30FF               	movlw	255
  1775     0515  00D2               	movwf	_Error+1
  1776                           
  1777                           ;SSLINE.c: 49:         found = 1;
  1778     0516  3001               	movlw	1
  1779     0517  00F4               	movwf	read_line_Error@found
  1780     0518  3000               	movlw	0
  1781     0519  00F5               	movwf	read_line_Error@found+1
  1782                           
  1783                           ;SSLINE.c: 50:     } else if (RB2 == 1) {
  1784     051A  2D60               	goto	l1398
  1785     051B                     l234:
  1786     051B  1D06               	btfss	6,2	;volatile
  1787     051C  2D1E               	goto	u1111
  1788     051D  2D1F               	goto	u1110
  1789     051E                     u1111:
  1790     051E  2D28               	goto	l236
  1791     051F                     u1110:
  1792     051F                     l1378:
  1793                           
  1794                           ;SSLINE.c: 51:         Error = 1;
  1795     051F  3001               	movlw	1
  1796     0520  00D1               	movwf	_Error
  1797     0521  3000               	movlw	0
  1798     0522  00D2               	movwf	_Error+1
  1799                           
  1800                           ;SSLINE.c: 52:         found = 1;
  1801     0523  3001               	movlw	1
  1802     0524  00F4               	movwf	read_line_Error@found
  1803     0525  3000               	movlw	0
  1804     0526  00F5               	movwf	read_line_Error@found+1
  1805                           
  1806                           ;SSLINE.c: 53:     } else if (RB4 == 1 && RB3 == 1 && RB2 == 1) {
  1807     0527  2D60               	goto	l1398
  1808     0528                     l236:
  1809     0528  1E06               	btfss	6,4	;volatile
  1810     0529  2D2B               	goto	u1121
  1811     052A  2D2C               	goto	u1120
  1812     052B                     u1121:
  1813     052B  2D3D               	goto	l238
  1814     052C                     u1120:
  1815     052C                     l1380:
  1816     052C  1D86               	btfss	6,3	;volatile
  1817     052D  2D2F               	goto	u1131
  1818     052E  2D30               	goto	u1130
  1819     052F                     u1131:
  1820     052F  2D3D               	goto	l238
  1821     0530                     u1130:
  1822     0530                     l1382:
  1823     0530  1D06               	btfss	6,2	;volatile
  1824     0531  2D33               	goto	u1141
  1825     0532  2D34               	goto	u1140
  1826     0533                     u1141:
  1827     0533  2D3D               	goto	l238
  1828     0534                     u1140:
  1829     0534                     l1384:
  1830                           
  1831                           ;SSLINE.c: 54:         Error = -3;
  1832     0534  30FD               	movlw	253
  1833     0535  00D1               	movwf	_Error
  1834     0536  30FF               	movlw	255
  1835     0537  00D2               	movwf	_Error+1
  1836                           
  1837                           ;SSLINE.c: 55:         found = 1;
  1838     0538  3001               	movlw	1
  1839     0539  00F4               	movwf	read_line_Error@found
  1840     053A  3000               	movlw	0
  1841     053B  00F5               	movwf	read_line_Error@found+1
  1842                           
  1843                           ;SSLINE.c: 56:     } else if (RB1 == 1 && RB3 == 1 && RB2 == 1) {
  1844     053C  2D60               	goto	l1398
  1845     053D                     l238:
  1846     053D  1C86               	btfss	6,1	;volatile
  1847     053E  2D40               	goto	u1151
  1848     053F  2D41               	goto	u1150
  1849     0540                     u1151:
  1850     0540  2D52               	goto	l240
  1851     0541                     u1150:
  1852     0541                     l1386:
  1853     0541  1D86               	btfss	6,3	;volatile
  1854     0542  2D44               	goto	u1161
  1855     0543  2D45               	goto	u1160
  1856     0544                     u1161:
  1857     0544  2D52               	goto	l240
  1858     0545                     u1160:
  1859     0545                     l1388:
  1860     0545  1D06               	btfss	6,2	;volatile
  1861     0546  2D48               	goto	u1171
  1862     0547  2D49               	goto	u1170
  1863     0548                     u1171:
  1864     0548  2D52               	goto	l240
  1865     0549                     u1170:
  1866     0549                     l1390:
  1867                           
  1868                           ;SSLINE.c: 57:         Error = 3;
  1869     0549  3003               	movlw	3
  1870     054A  00D1               	movwf	_Error
  1871     054B  3000               	movlw	0
  1872     054C  00D2               	movwf	_Error+1
  1873                           
  1874                           ;SSLINE.c: 58:         found = 1;
  1875     054D  3001               	movlw	1
  1876     054E  00F4               	movwf	read_line_Error@found
  1877     054F  3000               	movlw	0
  1878     0550  00F5               	movwf	read_line_Error@found+1
  1879                           
  1880                           ;SSLINE.c: 59:     } else if (RB3 == 1 && RB2 == 1) {
  1881     0551  2D60               	goto	l1398
  1882     0552                     l240:
  1883     0552  1D86               	btfss	6,3	;volatile
  1884     0553  2D55               	goto	u1181
  1885     0554  2D56               	goto	u1180
  1886     0555                     u1181:
  1887     0555  2D60               	goto	l1398
  1888     0556                     u1180:
  1889     0556                     l1392:
  1890     0556  1D06               	btfss	6,2	;volatile
  1891     0557  2D59               	goto	u1191
  1892     0558  2D5A               	goto	u1190
  1893     0559                     u1191:
  1894     0559  2D60               	goto	l1398
  1895     055A                     u1190:
  1896     055A                     l1394:
  1897                           
  1898                           ;SSLINE.c: 60:         Error = 0;
  1899     055A  01D1               	clrf	_Error
  1900     055B  01D2               	clrf	_Error+1
  1901     055C                     l1396:
  1902                           
  1903                           ;SSLINE.c: 61:         found = 1;
  1904     055C  3001               	movlw	1
  1905     055D  00F4               	movwf	read_line_Error@found
  1906     055E  3000               	movlw	0
  1907     055F  00F5               	movwf	read_line_Error@found+1
  1908     0560                     l1398:
  1909                           
  1910                           ;SSLINE.c: 64:     if (found) {
  1911     0560  0874               	movf	read_line_Error@found,w
  1912     0561  0475               	iorwf	read_line_Error@found+1,w
  1913     0562  1903               	btfsc	3,2
  1914     0563  2D65               	goto	u1201
  1915     0564  2D66               	goto	u1200
  1916     0565                     u1201:
  1917     0565  2D6D               	goto	l1404
  1918     0566                     u1200:
  1919     0566                     l1400:
  1920                           
  1921                           ;SSLINE.c: 65:         last_Error = Error;
  1922     0566  0852               	movf	_Error+1,w
  1923     0567  00CA               	movwf	_last_Error+1
  1924     0568  0851               	movf	_Error,w
  1925     0569  00C9               	movwf	_last_Error
  1926     056A                     l1402:
  1927                           
  1928                           ;SSLINE.c: 66:         lost_cnt = 0;
  1929     056A  01C7               	clrf	_lost_cnt
  1930     056B  01C8               	clrf	_lost_cnt+1
  1931                           
  1932                           ;SSLINE.c: 68:     } else {
  1933     056C  2D77               	goto	l245
  1934     056D                     l1404:
  1935                           
  1936                           ;SSLINE.c: 69:         Error = last_Error;
  1937     056D  084A               	movf	_last_Error+1,w
  1938     056E  00D2               	movwf	_Error+1
  1939     056F  0849               	movf	_last_Error,w
  1940     0570  00D1               	movwf	_Error
  1941                           
  1942                           ;SSLINE.c: 70:         lost_cnt++;
  1943     0571  3001               	movlw	1
  1944     0572  07C7               	addwf	_lost_cnt,f
  1945     0573  1803               	skipnc
  1946     0574  0AC8               	incf	_lost_cnt+1,f
  1947     0575  3000               	movlw	0
  1948     0576  07C8               	addwf	_lost_cnt+1,f
  1949     0577                     l245:
  1950     0577  0008               	return
  1951     0578                     __end_of_read_line_Error:
  1952                           
  1953                           	psect	text2
  1954     0025                     __ptext2:	
  1955 ;; *************** function _motor_control *****************
  1956 ;; Defined at:
  1957 ;;		line 79 in file "SSLINE.c"
  1958 ;; Parameters:    Size  Location     Type
  1959 ;;		None
  1960 ;; Auto vars:     Size  Location     Type
  1961 ;;  pwmR            2   35[BANK0 ] int 
  1962 ;;  pwmL            2   33[BANK0 ] int 
  1963 ;;  correction      2   31[BANK0 ] int 
  1964 ;;  base            2   29[BANK0 ] int 
  1965 ;;  kd_local        2   27[BANK0 ] int 
  1966 ;;  kp_local        2   25[BANK0 ] int 
  1967 ;;  d_error         2    7[BANK0 ] int 
  1968 ;; Return value:  Size  Location     Type
  1969 ;;                  1    wreg      void 
  1970 ;; Registers used:
  1971 ;;		wreg, status,2, status,0, pclath, btemp1, cstack
  1972 ;; Tracked objects:
  1973 ;;		On entry : 0/0
  1974 ;;		On exit  : 0/0
  1975 ;;		Unchanged: 0/0
  1976 ;; Data sizes:     COMMON   BANK0   BANK1   BANK3   BANK2
  1977 ;;      Params:         0       0       0       0       0
  1978 ;;      Locals:         0      30       0       0       0
  1979 ;;      Temps:          0       2       0       0       0
  1980 ;;      Totals:         0      32       0       0       0
  1981 ;;Total ram usage:       32 bytes
  1982 ;; Hardware stack levels used: 1
  1983 ;; Hardware stack levels required when called: 2
  1984 ;; This function calls:
  1985 ;;		_Car_Forward
  1986 ;;		_Status_Car
  1987 ;;		___wmul
  1988 ;;		_abs
  1989 ;;		_limit_pwm
  1990 ;; This function is called by:
  1991 ;;		_main
  1992 ;; This function uses a non-reentrant model
  1993 ;;
  1994                           
  1995     0025                     _motor_control:	
  1996                           ;psect for function _motor_control
  1997                           
  1998     0025                     l1644:	
  1999                           ;incstack = 0
  2000                           ; Regs used in _motor_control: [wreg+status,2+status,0+pclath+btemp1+cstack]
  2001                           
  2002                           
  2003                           ;SSLINE.c: 81:     int pwmL, pwmR;;SSLINE.c: 82:     int base, kp_local, kd_local;;SSLIN
      +                          E.c: 84:     int d_error = Error - last_Error;
  2004     0025  1283               	bcf	3,5	;RP0=0, select bank0
  2005     0026  1303               	bcf	3,6	;RP1=0, select bank0
  2006     0027  0849               	movf	_last_Error,w
  2007     0028  0251               	subwf	_Error,w
  2008     0029  00A7               	movwf	motor_control@d_error
  2009     002A  084A               	movf	_last_Error+1,w
  2010     002B  1C03               	skipc
  2011     002C  0A4A               	incf	_last_Error+1,w
  2012     002D  0252               	subwf	_Error+1,w
  2013     002E  00A8               	movwf	motor_control@d_error+1
  2014     002F                     l1646:
  2015                           
  2016                           ;SSLINE.c: 87:     if (lost_cnt > 300) {
  2017     002F  3001               	movlw	1
  2018     0030  0248               	subwf	_lost_cnt+1,w
  2019     0031  302D               	movlw	45
  2020     0032  1903               	skipnz
  2021     0033  0247               	subwf	_lost_cnt,w
  2022     0034  1C03               	skipc
  2023     0035  2837               	goto	u1711
  2024     0036  2838               	goto	u1710
  2025     0037                     u1711:
  2026     0037  2867               	goto	l1656
  2027     0038                     u1710:
  2028     0038                     l1648:
  2029                           
  2030                           ;SSLINE.c: 88:         if (last_Error > 0) {
  2031     0038  084A               	movf	_last_Error+1,w
  2032     0039  3A80               	xorlw	128
  2033     003A  00FF               	movwf	btemp1
  2034     003B  3080               	movlw	128
  2035     003C  027F               	subwf	btemp1,w
  2036     003D  1D03               	skipz
  2037     003E  2841               	goto	u1725
  2038     003F  3001               	movlw	1
  2039     0040  0249               	subwf	_last_Error,w
  2040     0041                     u1725:
  2041     0041  1C03               	skipc
  2042     0042  2844               	goto	u1721
  2043     0043  2845               	goto	u1720
  2044     0044                     u1721:
  2045     0044  2856               	goto	l1652
  2046     0045                     u1720:
  2047     0045                     l1650:
  2048                           
  2049                           ;SSLINE.c: 89:             Status_Car(0x06, 200, 200);
  2050     0045  30C8               	movlw	200
  2051     0046  1283               	bcf	3,5	;RP0=0, select bank0
  2052     0047  1303               	bcf	3,6	;RP1=0, select bank0
  2053     0048  00A0               	movwf	Status_Car@sp1
  2054     0049  3000               	movlw	0
  2055     004A  00A1               	movwf	Status_Car@sp1+1
  2056     004B  30C8               	movlw	200
  2057     004C  00A2               	movwf	Status_Car@sp2
  2058     004D  3000               	movlw	0
  2059     004E  00A3               	movwf	Status_Car@sp2+1
  2060     004F  3006               	movlw	6
  2061     0050  120A  118A  260D  120A  118A  	fcall	_Status_Car
  2062                           
  2063                           ;SSLINE.c: 92:         } else {
  2064     0055  2B1F               	goto	l251
  2065     0056                     l1652:
  2066                           
  2067                           ;SSLINE.c: 93:             Status_Car(0x09, 200, 200);
  2068     0056  30C8               	movlw	200
  2069     0057  1283               	bcf	3,5	;RP0=0, select bank0
  2070     0058  1303               	bcf	3,6	;RP1=0, select bank0
  2071     0059  00A0               	movwf	Status_Car@sp1
  2072     005A  3000               	movlw	0
  2073     005B  00A1               	movwf	Status_Car@sp1+1
  2074     005C  30C8               	movlw	200
  2075     005D  00A2               	movwf	Status_Car@sp2
  2076     005E  3000               	movlw	0
  2077     005F  00A3               	movwf	Status_Car@sp2+1
  2078     0060  3009               	movlw	9
  2079     0061  120A  118A  260D  120A  118A  	fcall	_Status_Car
  2080     0066  2B1F               	goto	l251
  2081     0067                     l1656:
  2082                           
  2083                           ;SSLINE.c: 101:     if (abs(Error) <= 1) {
  2084     0067  0852               	movf	_Error+1,w
  2085     0068  00F5               	movwf	abs@a+1
  2086     0069  0851               	movf	_Error,w
  2087     006A  00F4               	movwf	abs@a
  2088     006B  120A  118A  25FA  120A  118A  	fcall	_abs
  2089     0070  0875               	movf	?_abs+1,w
  2090     0071  3A80               	xorlw	128
  2091     0072  00FF               	movwf	btemp1
  2092     0073  3080               	movlw	128
  2093     0074  027F               	subwf	btemp1,w
  2094     0075  1D03               	skipz
  2095     0076  2879               	goto	u1735
  2096     0077  3002               	movlw	2
  2097     0078  0274               	subwf	?_abs,w
  2098     0079                     u1735:
  2099     0079  1803               	skipnc
  2100     007A  287C               	goto	u1731
  2101     007B  287D               	goto	u1730
  2102     007C                     u1731:
  2103     007C  288C               	goto	l1660
  2104     007D                     u1730:
  2105     007D                     l1658:
  2106                           
  2107                           ;SSLINE.c: 102:         base = 130;
  2108     007D  3082               	movlw	130
  2109     007E  1283               	bcf	3,5	;RP0=0, select bank0
  2110     007F  1303               	bcf	3,6	;RP1=0, select bank0
  2111     0080  00BD               	movwf	motor_control@base
  2112     0081  3000               	movlw	0
  2113     0082  00BE               	movwf	motor_control@base+1
  2114                           
  2115                           ;SSLINE.c: 103:         kp_local = 23;
  2116     0083  3017               	movlw	23
  2117     0084  00B9               	movwf	motor_control@kp_local
  2118     0085  3000               	movlw	0
  2119     0086  00BA               	movwf	motor_control@kp_local+1
  2120                           
  2121                           ;SSLINE.c: 104:         kd_local = 10;
  2122     0087  300A               	movlw	10
  2123     0088  00BB               	movwf	motor_control@kd_local
  2124     0089  3000               	movlw	0
  2125     008A  00BC               	movwf	motor_control@kd_local+1
  2126                           
  2127                           ;SSLINE.c: 105:     } else if (abs(Error) == 7) {
  2128     008B  292D               	goto	l1678
  2129     008C                     l1660:
  2130     008C  1283               	bcf	3,5	;RP0=0, select bank0
  2131     008D  1303               	bcf	3,6	;RP1=0, select bank0
  2132     008E  0852               	movf	_Error+1,w
  2133     008F  00F5               	movwf	abs@a+1
  2134     0090  0851               	movf	_Error,w
  2135     0091  00F4               	movwf	abs@a
  2136     0092  120A  118A  25FA  120A  118A  	fcall	_abs
  2137     0097  3007               	movlw	7
  2138     0098  0674               	xorwf	?_abs,w
  2139     0099  0475               	iorwf	?_abs+1,w
  2140     009A  1D03               	btfss	3,2
  2141     009B  289D               	goto	u1741
  2142     009C  289E               	goto	u1740
  2143     009D                     u1741:
  2144     009D  28AD               	goto	l1664
  2145     009E                     u1740:
  2146     009E                     l1662:
  2147                           
  2148                           ;SSLINE.c: 106:         base = 130 - 100;
  2149     009E  301E               	movlw	30
  2150     009F  1283               	bcf	3,5	;RP0=0, select bank0
  2151     00A0  1303               	bcf	3,6	;RP1=0, select bank0
  2152     00A1  00BD               	movwf	motor_control@base
  2153     00A2  3000               	movlw	0
  2154     00A3  00BE               	movwf	motor_control@base+1
  2155                           
  2156                           ;SSLINE.c: 107:         kp_local = 23 + 3;
  2157     00A4  301A               	movlw	26
  2158     00A5  00B9               	movwf	motor_control@kp_local
  2159     00A6  3000               	movlw	0
  2160     00A7  00BA               	movwf	motor_control@kp_local+1
  2161                           
  2162                           ;SSLINE.c: 108:         kd_local = 10 + 5;
  2163     00A8  300F               	movlw	15
  2164     00A9  00BB               	movwf	motor_control@kd_local
  2165     00AA  3000               	movlw	0
  2166     00AB  00BC               	movwf	motor_control@kd_local+1
  2167                           
  2168                           ;SSLINE.c: 109:     } else if (abs(Error) == 2) {
  2169     00AC  292D               	goto	l1678
  2170     00AD                     l1664:
  2171     00AD  1283               	bcf	3,5	;RP0=0, select bank0
  2172     00AE  1303               	bcf	3,6	;RP1=0, select bank0
  2173     00AF  0852               	movf	_Error+1,w
  2174     00B0  00F5               	movwf	abs@a+1
  2175     00B1  0851               	movf	_Error,w
  2176     00B2  00F4               	movwf	abs@a
  2177     00B3  120A  118A  25FA  120A  118A  	fcall	_abs
  2178     00B8  3002               	movlw	2
  2179     00B9  0674               	xorwf	?_abs,w
  2180     00BA  0475               	iorwf	?_abs+1,w
  2181     00BB  1D03               	btfss	3,2
  2182     00BC  28BE               	goto	u1751
  2183     00BD  28BF               	goto	u1750
  2184     00BE                     u1751:
  2185     00BE  28CE               	goto	l1668
  2186     00BF                     u1750:
  2187     00BF                     l1666:
  2188                           
  2189                           ;SSLINE.c: 110:         base = 130 - 25;
  2190     00BF  3069               	movlw	105
  2191     00C0  1283               	bcf	3,5	;RP0=0, select bank0
  2192     00C1  1303               	bcf	3,6	;RP1=0, select bank0
  2193     00C2  00BD               	movwf	motor_control@base
  2194     00C3  3000               	movlw	0
  2195     00C4  00BE               	movwf	motor_control@base+1
  2196                           
  2197                           ;SSLINE.c: 111:         kp_local = 23;
  2198     00C5  3017               	movlw	23
  2199     00C6  00B9               	movwf	motor_control@kp_local
  2200     00C7  3000               	movlw	0
  2201     00C8  00BA               	movwf	motor_control@kp_local+1
  2202                           
  2203                           ;SSLINE.c: 112:         kd_local = 10 + 2;
  2204     00C9  300C               	movlw	12
  2205     00CA  00BB               	movwf	motor_control@kd_local
  2206     00CB  3000               	movlw	0
  2207     00CC  00BC               	movwf	motor_control@kd_local+1
  2208                           
  2209                           ;SSLINE.c: 113:     } else if (abs(Error) == 3) {
  2210     00CD  292D               	goto	l1678
  2211     00CE                     l1668:
  2212     00CE  1283               	bcf	3,5	;RP0=0, select bank0
  2213     00CF  1303               	bcf	3,6	;RP1=0, select bank0
  2214     00D0  0852               	movf	_Error+1,w
  2215     00D1  00F5               	movwf	abs@a+1
  2216     00D2  0851               	movf	_Error,w
  2217     00D3  00F4               	movwf	abs@a
  2218     00D4  120A  118A  25FA  120A  118A  	fcall	_abs
  2219     00D9  3003               	movlw	3
  2220     00DA  0674               	xorwf	?_abs,w
  2221     00DB  0475               	iorwf	?_abs+1,w
  2222     00DC  1D03               	btfss	3,2
  2223     00DD  28DF               	goto	u1761
  2224     00DE  28E0               	goto	u1760
  2225     00DF                     u1761:
  2226     00DF  28EF               	goto	l1672
  2227     00E0                     u1760:
  2228     00E0                     l1670:
  2229                           
  2230                           ;SSLINE.c: 114:         base = 130 - 50;
  2231     00E0  3050               	movlw	80
  2232     00E1  1283               	bcf	3,5	;RP0=0, select bank0
  2233     00E2  1303               	bcf	3,6	;RP1=0, select bank0
  2234     00E3  00BD               	movwf	motor_control@base
  2235     00E4  3000               	movlw	0
  2236     00E5  00BE               	movwf	motor_control@base+1
  2237                           
  2238                           ;SSLINE.c: 115:         kp_local = 23 + 4;
  2239     00E6  301B               	movlw	27
  2240     00E7  00B9               	movwf	motor_control@kp_local
  2241     00E8  3000               	movlw	0
  2242     00E9  00BA               	movwf	motor_control@kp_local+1
  2243                           
  2244                           ;SSLINE.c: 116:         kd_local = 10 + 5;
  2245     00EA  300F               	movlw	15
  2246     00EB  00BB               	movwf	motor_control@kd_local
  2247     00EC  3000               	movlw	0
  2248     00ED  00BC               	movwf	motor_control@kd_local+1
  2249                           
  2250                           ;SSLINE.c: 117:     } else if (abs(Error) >= 4 && abs(Error) <= 5) {
  2251     00EE  292D               	goto	l1678
  2252     00EF                     l1672:
  2253     00EF  1283               	bcf	3,5	;RP0=0, select bank0
  2254     00F0  1303               	bcf	3,6	;RP1=0, select bank0
  2255     00F1  0852               	movf	_Error+1,w
  2256     00F2  00F5               	movwf	abs@a+1
  2257     00F3  0851               	movf	_Error,w
  2258     00F4  00F4               	movwf	abs@a
  2259     00F5  120A  118A  25FA  120A  118A  	fcall	_abs
  2260     00FA  0875               	movf	?_abs+1,w
  2261     00FB  3A80               	xorlw	128
  2262     00FC  00FF               	movwf	btemp1
  2263     00FD  3080               	movlw	128
  2264     00FE  027F               	subwf	btemp1,w
  2265     00FF  1D03               	skipz
  2266     0100  2903               	goto	u1775
  2267     0101  3004               	movlw	4
  2268     0102  0274               	subwf	?_abs,w
  2269     0103                     u1775:
  2270     0103  1C03               	skipc
  2271     0104  2906               	goto	u1771
  2272     0105  2907               	goto	u1770
  2273     0106                     u1771:
  2274     0106  292D               	goto	l1678
  2275     0107                     u1770:
  2276     0107                     l1674:
  2277     0107  1283               	bcf	3,5	;RP0=0, select bank0
  2278     0108  1303               	bcf	3,6	;RP1=0, select bank0
  2279     0109  0852               	movf	_Error+1,w
  2280     010A  00F5               	movwf	abs@a+1
  2281     010B  0851               	movf	_Error,w
  2282     010C  00F4               	movwf	abs@a
  2283     010D  120A  118A  25FA  120A  118A  	fcall	_abs
  2284     0112  0875               	movf	?_abs+1,w
  2285     0113  3A80               	xorlw	128
  2286     0114  00FF               	movwf	btemp1
  2287     0115  3080               	movlw	128
  2288     0116  027F               	subwf	btemp1,w
  2289     0117  1D03               	skipz
  2290     0118  291B               	goto	u1785
  2291     0119  3006               	movlw	6
  2292     011A  0274               	subwf	?_abs,w
  2293     011B                     u1785:
  2294     011B  1803               	skipnc
  2295     011C  291E               	goto	u1781
  2296     011D  291F               	goto	u1780
  2297     011E                     u1781:
  2298     011E  292D               	goto	l1678
  2299     011F                     u1780:
  2300     011F                     l1676:
  2301                           
  2302                           ;SSLINE.c: 118:         base = 130 - 75;
  2303     011F  3037               	movlw	55
  2304     0120  1283               	bcf	3,5	;RP0=0, select bank0
  2305     0121  1303               	bcf	3,6	;RP1=0, select bank0
  2306     0122  00BD               	movwf	motor_control@base
  2307     0123  3000               	movlw	0
  2308     0124  00BE               	movwf	motor_control@base+1
  2309                           
  2310                           ;SSLINE.c: 119:         kp_local = 23 + 6;
  2311     0125  301D               	movlw	29
  2312     0126  00B9               	movwf	motor_control@kp_local
  2313     0127  3000               	movlw	0
  2314     0128  00BA               	movwf	motor_control@kp_local+1
  2315                           
  2316                           ;SSLINE.c: 120:         kd_local = 10 + 6;
  2317     0129  3010               	movlw	16
  2318     012A  00BB               	movwf	motor_control@kd_local
  2319     012B  3000               	movlw	0
  2320     012C  00BC               	movwf	motor_control@kd_local+1
  2321     012D                     l1678:
  2322                           
  2323                           ;SSLINE.c: 124:     int correction = kp_local * Error + kd_local * d_error;
  2324     012D  1283               	bcf	3,5	;RP0=0, select bank0
  2325     012E  1303               	bcf	3,6	;RP1=0, select bank0
  2326     012F  083A               	movf	motor_control@kp_local+1,w
  2327     0130  00A1               	movwf	___wmul@multiplier+1
  2328     0131  0839               	movf	motor_control@kp_local,w
  2329     0132  00A0               	movwf	___wmul@multiplier
  2330     0133  0852               	movf	_Error+1,w
  2331     0134  00A3               	movwf	___wmul@multiplicand+1
  2332     0135  0851               	movf	_Error,w
  2333     0136  00A2               	movwf	___wmul@multiplicand
  2334     0137  120A  118A  2578  120A  118A  	fcall	___wmul
  2335     013C  1283               	bcf	3,5	;RP0=0, select bank0
  2336     013D  1303               	bcf	3,6	;RP1=0, select bank0
  2337     013E  0820               	movf	?___wmul,w
  2338     013F  00A5               	movwf	??_motor_control
  2339     0140  0821               	movf	?___wmul+1,w
  2340     0141  00A6               	movwf	??_motor_control+1
  2341     0142  083C               	movf	motor_control@kd_local+1,w
  2342     0143  00A1               	movwf	___wmul@multiplier+1
  2343     0144  083B               	movf	motor_control@kd_local,w
  2344     0145  00A0               	movwf	___wmul@multiplier
  2345     0146  0828               	movf	motor_control@d_error+1,w
  2346     0147  00A3               	movwf	___wmul@multiplicand+1
  2347     0148  0827               	movf	motor_control@d_error,w
  2348     0149  00A2               	movwf	___wmul@multiplicand
  2349     014A  120A  118A  2578  120A  118A  	fcall	___wmul
  2350     014F  1283               	bcf	3,5	;RP0=0, select bank0
  2351     0150  1303               	bcf	3,6	;RP1=0, select bank0
  2352     0151  0820               	movf	?___wmul,w
  2353     0152  0725               	addwf	??_motor_control,w
  2354     0153  00BF               	movwf	motor_control@correction
  2355     0154  0821               	movf	?___wmul+1,w
  2356     0155  1803               	skipnc
  2357     0156  0A21               	incf	?___wmul+1,w
  2358     0157  0726               	addwf	??_motor_control+1,w
  2359     0158  00C0               	movwf	motor_control@correction+1
  2360     0159                     l1680:
  2361                           
  2362                           ;SSLINE.c: 126:     pwmL = base - correction;
  2363     0159  083F               	movf	motor_control@correction,w
  2364     015A  023D               	subwf	motor_control@base,w
  2365     015B  00C1               	movwf	motor_control@pwmL
  2366     015C  0840               	movf	motor_control@correction+1,w
  2367     015D  1C03               	skipc
  2368     015E  0A40               	incf	motor_control@correction+1,w
  2369     015F  023E               	subwf	motor_control@base+1,w
  2370     0160  00C2               	movwf	motor_control@pwmL+1
  2371     0161                     l1682:
  2372                           
  2373                           ;SSLINE.c: 127:     pwmR = base + correction + 6;
  2374     0161  083F               	movf	motor_control@correction,w
  2375     0162  073D               	addwf	motor_control@base,w
  2376     0163  00A5               	movwf	??_motor_control
  2377     0164  0840               	movf	motor_control@correction+1,w
  2378     0165  1803               	skipnc
  2379     0166  0A40               	incf	motor_control@correction+1,w
  2380     0167  073E               	addwf	motor_control@base+1,w
  2381     0168  00A6               	movwf	??_motor_control+1
  2382     0169  0825               	movf	??_motor_control,w
  2383     016A  3E06               	addlw	6
  2384     016B  00C3               	movwf	motor_control@pwmR
  2385     016C  0826               	movf	??_motor_control+1,w
  2386     016D  1803               	skipnc
  2387     016E  3E01               	addlw	1
  2388     016F  3E00               	addlw	0
  2389     0170  00C4               	movwf	motor_control@pwmR+1
  2390     0171                     l1684:
  2391                           
  2392                           ;SSLINE.c: 129:     pwmL = limit_pwm(pwmL);
  2393     0171  0842               	movf	motor_control@pwmL+1,w
  2394     0172  00F5               	movwf	limit_pwm@val+1
  2395     0173  0841               	movf	motor_control@pwmL,w
  2396     0174  00F4               	movwf	limit_pwm@val
  2397     0175  120A  118A  25C3  120A  118A  	fcall	_limit_pwm
  2398     017A  1283               	bcf	3,5	;RP0=0, select bank0
  2399     017B  1303               	bcf	3,6	;RP1=0, select bank0
  2400     017C  00A5               	movwf	??_motor_control
  2401     017D  01A6               	clrf	??_motor_control+1
  2402     017E  0825               	movf	??_motor_control,w
  2403     017F  00C1               	movwf	motor_control@pwmL
  2404     0180  0826               	movf	??_motor_control+1,w
  2405     0181  00C2               	movwf	motor_control@pwmL+1
  2406     0182                     l1686:
  2407                           
  2408                           ;SSLINE.c: 130:     pwmR = limit_pwm(pwmR);
  2409     0182  0844               	movf	motor_control@pwmR+1,w
  2410     0183  00F5               	movwf	limit_pwm@val+1
  2411     0184  0843               	movf	motor_control@pwmR,w
  2412     0185  00F4               	movwf	limit_pwm@val
  2413     0186  120A  118A  25C3  120A  118A  	fcall	_limit_pwm
  2414     018B  1283               	bcf	3,5	;RP0=0, select bank0
  2415     018C  1303               	bcf	3,6	;RP1=0, select bank0
  2416     018D  00A5               	movwf	??_motor_control
  2417     018E  01A6               	clrf	??_motor_control+1
  2418     018F  0825               	movf	??_motor_control,w
  2419     0190  00C3               	movwf	motor_control@pwmR
  2420     0191  0826               	movf	??_motor_control+1,w
  2421     0192  00C4               	movwf	motor_control@pwmR+1
  2422     0193                     l1688:
  2423                           
  2424                           ;SSLINE.c: 133:     if (abs(Error) >= 2 && abs(Error) % 2 == 0) {
  2425     0193  0852               	movf	_Error+1,w
  2426     0194  00F5               	movwf	abs@a+1
  2427     0195  0851               	movf	_Error,w
  2428     0196  00F4               	movwf	abs@a
  2429     0197  120A  118A  25FA  120A  118A  	fcall	_abs
  2430     019C  0875               	movf	?_abs+1,w
  2431     019D  3A80               	xorlw	128
  2432     019E  00FF               	movwf	btemp1
  2433     019F  3080               	movlw	128
  2434     01A0  027F               	subwf	btemp1,w
  2435     01A1  1D03               	skipz
  2436     01A2  29A5               	goto	u1795
  2437     01A3  3002               	movlw	2
  2438     01A4  0274               	subwf	?_abs,w
  2439     01A5                     u1795:
  2440     01A5  1C03               	skipc
  2441     01A6  29A8               	goto	u1791
  2442     01A7  29A9               	goto	u1790
  2443     01A8                     u1791:
  2444     01A8  2A50               	goto	l1722
  2445     01A9                     u1790:
  2446     01A9                     l1690:
  2447     01A9  1283               	bcf	3,5	;RP0=0, select bank0
  2448     01AA  1303               	bcf	3,6	;RP1=0, select bank0
  2449     01AB  0852               	movf	_Error+1,w
  2450     01AC  00F5               	movwf	abs@a+1
  2451     01AD  0851               	movf	_Error,w
  2452     01AE  00F4               	movwf	abs@a
  2453     01AF  120A  118A  25FA  120A  118A  	fcall	_abs
  2454     01B4  1874               	btfsc	?_abs,0
  2455     01B5  29B7               	goto	u1801
  2456     01B6  29B8               	goto	u1800
  2457     01B7                     u1801:
  2458     01B7  2A50               	goto	l1722
  2459     01B8                     u1800:
  2460     01B8                     l1692:
  2461                           
  2462                           ;SSLINE.c: 134:         if (Error > 0)
  2463     01B8  1283               	bcf	3,5	;RP0=0, select bank0
  2464     01B9  1303               	bcf	3,6	;RP1=0, select bank0
  2465     01BA  0852               	movf	_Error+1,w
  2466     01BB  3A80               	xorlw	128
  2467     01BC  00FF               	movwf	btemp1
  2468     01BD  3080               	movlw	128
  2469     01BE  027F               	subwf	btemp1,w
  2470     01BF  1D03               	skipz
  2471     01C0  29C3               	goto	u1815
  2472     01C1  3001               	movlw	1
  2473     01C2  0251               	subwf	_Error,w
  2474     01C3                     u1815:
  2475     01C3  1C03               	skipc
  2476     01C4  29C6               	goto	u1811
  2477     01C5  29C7               	goto	u1810
  2478     01C6                     u1811:
  2479     01C6  2A0C               	goto	l1708
  2480     01C7                     u1810:
  2481     01C7                     l1694:
  2482                           
  2483                           ;SSLINE.c: 135:             Status_Car(0x09, pwmR < 10 ? correction : pwmR, pwmL < 50 ? 
      +                          correction : pwmL);
  2484     01C7  1283               	bcf	3,5	;RP0=0, select bank0
  2485     01C8  1303               	bcf	3,6	;RP1=0, select bank0
  2486     01C9  0842               	movf	motor_control@pwmL+1,w
  2487     01CA  3A80               	xorlw	128
  2488     01CB  00FF               	movwf	btemp1
  2489     01CC  3080               	movlw	128
  2490     01CD  027F               	subwf	btemp1,w
  2491     01CE  1D03               	skipz
  2492     01CF  29D2               	goto	u1825
  2493     01D0  3032               	movlw	50
  2494     01D1  0241               	subwf	motor_control@pwmL,w
  2495     01D2                     u1825:
  2496     01D2  1C03               	skipc
  2497     01D3  29D5               	goto	u1821
  2498     01D4  29D6               	goto	u1820
  2499     01D5                     u1821:
  2500     01D5  29DD               	goto	l1698
  2501     01D6                     u1820:
  2502     01D6                     l1696:
  2503     01D6  1283               	bcf	3,5	;RP0=0, select bank0
  2504     01D7  1303               	bcf	3,6	;RP1=0, select bank0
  2505     01D8  0842               	movf	motor_control@pwmL+1,w
  2506     01D9  00AA               	movwf	_motor_control$155+1
  2507     01DA  0841               	movf	motor_control@pwmL,w
  2508     01DB  00A9               	movwf	_motor_control$155
  2509     01DC  29E3               	goto	l1700
  2510     01DD                     l1698:
  2511     01DD  1283               	bcf	3,5	;RP0=0, select bank0
  2512     01DE  1303               	bcf	3,6	;RP1=0, select bank0
  2513     01DF  0840               	movf	motor_control@correction+1,w
  2514     01E0  00AA               	movwf	_motor_control$155+1
  2515     01E1  083F               	movf	motor_control@correction,w
  2516     01E2  00A9               	movwf	_motor_control$155
  2517     01E3                     l1700:
  2518     01E3  0844               	movf	motor_control@pwmR+1,w
  2519     01E4  3A80               	xorlw	128
  2520     01E5  00FF               	movwf	btemp1
  2521     01E6  3080               	movlw	128
  2522     01E7  027F               	subwf	btemp1,w
  2523     01E8  1D03               	skipz
  2524     01E9  29EC               	goto	u1835
  2525     01EA  300A               	movlw	10
  2526     01EB  0243               	subwf	motor_control@pwmR,w
  2527     01EC                     u1835:
  2528     01EC  1C03               	skipc
  2529     01ED  29EF               	goto	u1831
  2530     01EE  29F0               	goto	u1830
  2531     01EF                     u1831:
  2532     01EF  29F7               	goto	l1704
  2533     01F0                     u1830:
  2534     01F0                     l1702:
  2535     01F0  1283               	bcf	3,5	;RP0=0, select bank0
  2536     01F1  1303               	bcf	3,6	;RP1=0, select bank0
  2537     01F2  0844               	movf	motor_control@pwmR+1,w
  2538     01F3  00AC               	movwf	_motor_control$156+1
  2539     01F4  0843               	movf	motor_control@pwmR,w
  2540     01F5  00AB               	movwf	_motor_control$156
  2541     01F6  29FD               	goto	l1706
  2542     01F7                     l1704:
  2543     01F7  1283               	bcf	3,5	;RP0=0, select bank0
  2544     01F8  1303               	bcf	3,6	;RP1=0, select bank0
  2545     01F9  0840               	movf	motor_control@correction+1,w
  2546     01FA  00AC               	movwf	_motor_control$156+1
  2547     01FB  083F               	movf	motor_control@correction,w
  2548     01FC  00AB               	movwf	_motor_control$156
  2549     01FD                     l1706:
  2550     01FD  082C               	movf	_motor_control$156+1,w
  2551     01FE  00A1               	movwf	Status_Car@sp1+1
  2552     01FF  082B               	movf	_motor_control$156,w
  2553     0200  00A0               	movwf	Status_Car@sp1
  2554     0201  082A               	movf	_motor_control$155+1,w
  2555     0202  00A3               	movwf	Status_Car@sp2+1
  2556     0203  0829               	movf	_motor_control$155,w
  2557     0204  00A2               	movwf	Status_Car@sp2
  2558     0205  3009               	movlw	9
  2559     0206  120A  118A  260D  120A  118A  	fcall	_Status_Car
  2560     020B  2A50               	goto	l1722
  2561     020C                     l1708:
  2562                           
  2563                           ;SSLINE.c: 137:             Status_Car(0x06, pwmR < 10 ? correction : pwmR, pwmL < 50 ? 
      +                          correction : pwmL);
  2564     020C  1283               	bcf	3,5	;RP0=0, select bank0
  2565     020D  1303               	bcf	3,6	;RP1=0, select bank0
  2566     020E  0842               	movf	motor_control@pwmL+1,w
  2567     020F  3A80               	xorlw	128
  2568     0210  00FF               	movwf	btemp1
  2569     0211  3080               	movlw	128
  2570     0212  027F               	subwf	btemp1,w
  2571     0213  1D03               	skipz
  2572     0214  2A17               	goto	u1845
  2573     0215  3032               	movlw	50
  2574     0216  0241               	subwf	motor_control@pwmL,w
  2575     0217                     u1845:
  2576     0217  1C03               	skipc
  2577     0218  2A1A               	goto	u1841
  2578     0219  2A1B               	goto	u1840
  2579     021A                     u1841:
  2580     021A  2A22               	goto	l1712
  2581     021B                     u1840:
  2582     021B                     l1710:
  2583     021B  1283               	bcf	3,5	;RP0=0, select bank0
  2584     021C  1303               	bcf	3,6	;RP1=0, select bank0
  2585     021D  0842               	movf	motor_control@pwmL+1,w
  2586     021E  00AE               	movwf	_motor_control$157+1
  2587     021F  0841               	movf	motor_control@pwmL,w
  2588     0220  00AD               	movwf	_motor_control$157
  2589     0221  2A28               	goto	l1714
  2590     0222                     l1712:
  2591     0222  1283               	bcf	3,5	;RP0=0, select bank0
  2592     0223  1303               	bcf	3,6	;RP1=0, select bank0
  2593     0224  0840               	movf	motor_control@correction+1,w
  2594     0225  00AE               	movwf	_motor_control$157+1
  2595     0226  083F               	movf	motor_control@correction,w
  2596     0227  00AD               	movwf	_motor_control$157
  2597     0228                     l1714:
  2598     0228  0844               	movf	motor_control@pwmR+1,w
  2599     0229  3A80               	xorlw	128
  2600     022A  00FF               	movwf	btemp1
  2601     022B  3080               	movlw	128
  2602     022C  027F               	subwf	btemp1,w
  2603     022D  1D03               	skipz
  2604     022E  2A31               	goto	u1855
  2605     022F  300A               	movlw	10
  2606     0230  0243               	subwf	motor_control@pwmR,w
  2607     0231                     u1855:
  2608     0231  1C03               	skipc
  2609     0232  2A34               	goto	u1851
  2610     0233  2A35               	goto	u1850
  2611     0234                     u1851:
  2612     0234  2A3C               	goto	l1718
  2613     0235                     u1850:
  2614     0235                     l1716:
  2615     0235  1283               	bcf	3,5	;RP0=0, select bank0
  2616     0236  1303               	bcf	3,6	;RP1=0, select bank0
  2617     0237  0844               	movf	motor_control@pwmR+1,w
  2618     0238  00B0               	movwf	_motor_control$158+1
  2619     0239  0843               	movf	motor_control@pwmR,w
  2620     023A  00AF               	movwf	_motor_control$158
  2621     023B  2A42               	goto	l1720
  2622     023C                     l1718:
  2623     023C  1283               	bcf	3,5	;RP0=0, select bank0
  2624     023D  1303               	bcf	3,6	;RP1=0, select bank0
  2625     023E  0840               	movf	motor_control@correction+1,w
  2626     023F  00B0               	movwf	_motor_control$158+1
  2627     0240  083F               	movf	motor_control@correction,w
  2628     0241  00AF               	movwf	_motor_control$158
  2629     0242                     l1720:
  2630     0242  0830               	movf	_motor_control$158+1,w
  2631     0243  00A1               	movwf	Status_Car@sp1+1
  2632     0244  082F               	movf	_motor_control$158,w
  2633     0245  00A0               	movwf	Status_Car@sp1
  2634     0246  082E               	movf	_motor_control$157+1,w
  2635     0247  00A3               	movwf	Status_Car@sp2+1
  2636     0248  082D               	movf	_motor_control$157,w
  2637     0249  00A2               	movwf	Status_Car@sp2
  2638     024A  3006               	movlw	6
  2639     024B  120A  118A  260D  120A  118A  	fcall	_Status_Car
  2640     0250                     l1722:
  2641                           
  2642                           ;SSLINE.c: 139:     if (abs(Error) >= 2 && abs(Error) % 2 == 1) {
  2643     0250  1283               	bcf	3,5	;RP0=0, select bank0
  2644     0251  1303               	bcf	3,6	;RP1=0, select bank0
  2645     0252  0852               	movf	_Error+1,w
  2646     0253  00F5               	movwf	abs@a+1
  2647     0254  0851               	movf	_Error,w
  2648     0255  00F4               	movwf	abs@a
  2649     0256  120A  118A  25FA  120A  118A  	fcall	_abs
  2650     025B  0875               	movf	?_abs+1,w
  2651     025C  3A80               	xorlw	128
  2652     025D  00FF               	movwf	btemp1
  2653     025E  3080               	movlw	128
  2654     025F  027F               	subwf	btemp1,w
  2655     0260  1D03               	skipz
  2656     0261  2A64               	goto	u1865
  2657     0262  3002               	movlw	2
  2658     0263  0274               	subwf	?_abs,w
  2659     0264                     u1865:
  2660     0264  1C03               	skipc
  2661     0265  2A67               	goto	u1861
  2662     0266  2A68               	goto	u1860
  2663     0267                     u1861:
  2664     0267  2B10               	goto	l1756
  2665     0268                     u1860:
  2666     0268                     l1724:
  2667     0268  1283               	bcf	3,5	;RP0=0, select bank0
  2668     0269  1303               	bcf	3,6	;RP1=0, select bank0
  2669     026A  0852               	movf	_Error+1,w
  2670     026B  00F5               	movwf	abs@a+1
  2671     026C  0851               	movf	_Error,w
  2672     026D  00F4               	movwf	abs@a
  2673     026E  120A  118A  25FA  120A  118A  	fcall	_abs
  2674     0273  1C74               	btfss	?_abs,0
  2675     0274  2A76               	goto	u1871
  2676     0275  2A77               	goto	u1870
  2677     0276                     u1871:
  2678     0276  2B10               	goto	l1756
  2679     0277                     u1870:
  2680     0277                     l1726:
  2681                           
  2682                           ;SSLINE.c: 140:         if (Error > 0)
  2683     0277  1283               	bcf	3,5	;RP0=0, select bank0
  2684     0278  1303               	bcf	3,6	;RP1=0, select bank0
  2685     0279  0852               	movf	_Error+1,w
  2686     027A  3A80               	xorlw	128
  2687     027B  00FF               	movwf	btemp1
  2688     027C  3080               	movlw	128
  2689     027D  027F               	subwf	btemp1,w
  2690     027E  1D03               	skipz
  2691     027F  2A82               	goto	u1885
  2692     0280  3001               	movlw	1
  2693     0281  0251               	subwf	_Error,w
  2694     0282                     u1885:
  2695     0282  1C03               	skipc
  2696     0283  2A85               	goto	u1881
  2697     0284  2A86               	goto	u1880
  2698     0285                     u1881:
  2699     0285  2ACB               	goto	l1742
  2700     0286                     u1880:
  2701     0286                     l1728:
  2702                           
  2703                           ;SSLINE.c: 141:             Status_Car(0x09, pwmR < 30 ? correction : pwmR, pwmL < 30 ? 
      +                          correction : pwmL);
  2704     0286  1283               	bcf	3,5	;RP0=0, select bank0
  2705     0287  1303               	bcf	3,6	;RP1=0, select bank0
  2706     0288  0842               	movf	motor_control@pwmL+1,w
  2707     0289  3A80               	xorlw	128
  2708     028A  00FF               	movwf	btemp1
  2709     028B  3080               	movlw	128
  2710     028C  027F               	subwf	btemp1,w
  2711     028D  1D03               	skipz
  2712     028E  2A91               	goto	u1895
  2713     028F  301E               	movlw	30
  2714     0290  0241               	subwf	motor_control@pwmL,w
  2715     0291                     u1895:
  2716     0291  1C03               	skipc
  2717     0292  2A94               	goto	u1891
  2718     0293  2A95               	goto	u1890
  2719     0294                     u1891:
  2720     0294  2A9C               	goto	l1732
  2721     0295                     u1890:
  2722     0295                     l1730:
  2723     0295  1283               	bcf	3,5	;RP0=0, select bank0
  2724     0296  1303               	bcf	3,6	;RP1=0, select bank0
  2725     0297  0842               	movf	motor_control@pwmL+1,w
  2726     0298  00B2               	movwf	_motor_control$159+1
  2727     0299  0841               	movf	motor_control@pwmL,w
  2728     029A  00B1               	movwf	_motor_control$159
  2729     029B  2AA2               	goto	l1734
  2730     029C                     l1732:
  2731     029C  1283               	bcf	3,5	;RP0=0, select bank0
  2732     029D  1303               	bcf	3,6	;RP1=0, select bank0
  2733     029E  0840               	movf	motor_control@correction+1,w
  2734     029F  00B2               	movwf	_motor_control$159+1
  2735     02A0  083F               	movf	motor_control@correction,w
  2736     02A1  00B1               	movwf	_motor_control$159
  2737     02A2                     l1734:
  2738     02A2  0844               	movf	motor_control@pwmR+1,w
  2739     02A3  3A80               	xorlw	128
  2740     02A4  00FF               	movwf	btemp1
  2741     02A5  3080               	movlw	128
  2742     02A6  027F               	subwf	btemp1,w
  2743     02A7  1D03               	skipz
  2744     02A8  2AAB               	goto	u1905
  2745     02A9  301E               	movlw	30
  2746     02AA  0243               	subwf	motor_control@pwmR,w
  2747     02AB                     u1905:
  2748     02AB  1C03               	skipc
  2749     02AC  2AAE               	goto	u1901
  2750     02AD  2AAF               	goto	u1900
  2751     02AE                     u1901:
  2752     02AE  2AB6               	goto	l1738
  2753     02AF                     u1900:
  2754     02AF                     l1736:
  2755     02AF  1283               	bcf	3,5	;RP0=0, select bank0
  2756     02B0  1303               	bcf	3,6	;RP1=0, select bank0
  2757     02B1  0844               	movf	motor_control@pwmR+1,w
  2758     02B2  00B4               	movwf	_motor_control$160+1
  2759     02B3  0843               	movf	motor_control@pwmR,w
  2760     02B4  00B3               	movwf	_motor_control$160
  2761     02B5  2ABC               	goto	l1740
  2762     02B6                     l1738:
  2763     02B6  1283               	bcf	3,5	;RP0=0, select bank0
  2764     02B7  1303               	bcf	3,6	;RP1=0, select bank0
  2765     02B8  0840               	movf	motor_control@correction+1,w
  2766     02B9  00B4               	movwf	_motor_control$160+1
  2767     02BA  083F               	movf	motor_control@correction,w
  2768     02BB  00B3               	movwf	_motor_control$160
  2769     02BC                     l1740:
  2770     02BC  0834               	movf	_motor_control$160+1,w
  2771     02BD  00A1               	movwf	Status_Car@sp1+1
  2772     02BE  0833               	movf	_motor_control$160,w
  2773     02BF  00A0               	movwf	Status_Car@sp1
  2774     02C0  0832               	movf	_motor_control$159+1,w
  2775     02C1  00A3               	movwf	Status_Car@sp2+1
  2776     02C2  0831               	movf	_motor_control$159,w
  2777     02C3  00A2               	movwf	Status_Car@sp2
  2778     02C4  3009               	movlw	9
  2779     02C5  120A  118A  260D  120A  118A  	fcall	_Status_Car
  2780     02CA  2B1F               	goto	l251
  2781     02CB                     l1742:
  2782                           
  2783                           ;SSLINE.c: 143:             Status_Car(0x06, pwmR < 30 ? correction : pwmR, pwmL < 30 ? 
      +                          correction : pwmL);
  2784     02CB  1283               	bcf	3,5	;RP0=0, select bank0
  2785     02CC  1303               	bcf	3,6	;RP1=0, select bank0
  2786     02CD  0842               	movf	motor_control@pwmL+1,w
  2787     02CE  3A80               	xorlw	128
  2788     02CF  00FF               	movwf	btemp1
  2789     02D0  3080               	movlw	128
  2790     02D1  027F               	subwf	btemp1,w
  2791     02D2  1D03               	skipz
  2792     02D3  2AD6               	goto	u1915
  2793     02D4  301E               	movlw	30
  2794     02D5  0241               	subwf	motor_control@pwmL,w
  2795     02D6                     u1915:
  2796     02D6  1C03               	skipc
  2797     02D7  2AD9               	goto	u1911
  2798     02D8  2ADA               	goto	u1910
  2799     02D9                     u1911:
  2800     02D9  2AE1               	goto	l1746
  2801     02DA                     u1910:
  2802     02DA                     l1744:
  2803     02DA  1283               	bcf	3,5	;RP0=0, select bank0
  2804     02DB  1303               	bcf	3,6	;RP1=0, select bank0
  2805     02DC  0842               	movf	motor_control@pwmL+1,w
  2806     02DD  00B6               	movwf	_motor_control$161+1
  2807     02DE  0841               	movf	motor_control@pwmL,w
  2808     02DF  00B5               	movwf	_motor_control$161
  2809     02E0  2AE7               	goto	l1748
  2810     02E1                     l1746:
  2811     02E1  1283               	bcf	3,5	;RP0=0, select bank0
  2812     02E2  1303               	bcf	3,6	;RP1=0, select bank0
  2813     02E3  0840               	movf	motor_control@correction+1,w
  2814     02E4  00B6               	movwf	_motor_control$161+1
  2815     02E5  083F               	movf	motor_control@correction,w
  2816     02E6  00B5               	movwf	_motor_control$161
  2817     02E7                     l1748:
  2818     02E7  0844               	movf	motor_control@pwmR+1,w
  2819     02E8  3A80               	xorlw	128
  2820     02E9  00FF               	movwf	btemp1
  2821     02EA  3080               	movlw	128
  2822     02EB  027F               	subwf	btemp1,w
  2823     02EC  1D03               	skipz
  2824     02ED  2AF0               	goto	u1925
  2825     02EE  301E               	movlw	30
  2826     02EF  0243               	subwf	motor_control@pwmR,w
  2827     02F0                     u1925:
  2828     02F0  1C03               	skipc
  2829     02F1  2AF3               	goto	u1921
  2830     02F2  2AF4               	goto	u1920
  2831     02F3                     u1921:
  2832     02F3  2AFB               	goto	l1752
  2833     02F4                     u1920:
  2834     02F4                     l1750:
  2835     02F4  1283               	bcf	3,5	;RP0=0, select bank0
  2836     02F5  1303               	bcf	3,6	;RP1=0, select bank0
  2837     02F6  0844               	movf	motor_control@pwmR+1,w
  2838     02F7  00B8               	movwf	_motor_control$162+1
  2839     02F8  0843               	movf	motor_control@pwmR,w
  2840     02F9  00B7               	movwf	_motor_control$162
  2841     02FA  2B01               	goto	l1754
  2842     02FB                     l1752:
  2843     02FB  1283               	bcf	3,5	;RP0=0, select bank0
  2844     02FC  1303               	bcf	3,6	;RP1=0, select bank0
  2845     02FD  0840               	movf	motor_control@correction+1,w
  2846     02FE  00B8               	movwf	_motor_control$162+1
  2847     02FF  083F               	movf	motor_control@correction,w
  2848     0300  00B7               	movwf	_motor_control$162
  2849     0301                     l1754:
  2850     0301  0838               	movf	_motor_control$162+1,w
  2851     0302  00A1               	movwf	Status_Car@sp1+1
  2852     0303  0837               	movf	_motor_control$162,w
  2853     0304  00A0               	movwf	Status_Car@sp1
  2854     0305  0836               	movf	_motor_control$161+1,w
  2855     0306  00A3               	movwf	Status_Car@sp2+1
  2856     0307  0835               	movf	_motor_control$161,w
  2857     0308  00A2               	movwf	Status_Car@sp2
  2858     0309  3006               	movlw	6
  2859     030A  120A  118A  260D  120A  118A  	fcall	_Status_Car
  2860     030F  2B1F               	goto	l251
  2861     0310                     l1756:
  2862                           
  2863                           ;SSLINE.c: 145:         Car_Forward(pwmL, pwmR);
  2864     0310  1283               	bcf	3,5	;RP0=0, select bank0
  2865     0311  1303               	bcf	3,6	;RP1=0, select bank0
  2866     0312  0842               	movf	motor_control@pwmL+1,w
  2867     0313  00A1               	movwf	Car_Forward@pwmL+1
  2868     0314  0841               	movf	motor_control@pwmL,w
  2869     0315  00A0               	movwf	Car_Forward@pwmL
  2870     0316  0844               	movf	motor_control@pwmR+1,w
  2871     0317  00A3               	movwf	Car_Forward@pwmR+1
  2872     0318  0843               	movf	motor_control@pwmR,w
  2873     0319  00A2               	movwf	Car_Forward@pwmR
  2874     031A  120A  118A  261D  120A  118A  	fcall	_Car_Forward
  2875     031F                     l251:
  2876     031F  0008               	return
  2877     0320                     __end_of_motor_control:
  2878                           
  2879                           	psect	text3
  2880     05C3                     __ptext3:	
  2881 ;; *************** function _limit_pwm *****************
  2882 ;; Defined at:
  2883 ;;		line 13 in file "SSLINE.c"
  2884 ;; Parameters:    Size  Location     Type
  2885 ;;  val             2    4[COMMON] int 
  2886 ;; Auto vars:     Size  Location     Type
  2887 ;;		None
  2888 ;; Return value:  Size  Location     Type
  2889 ;;                  1    wreg      unsigned char 
  2890 ;; Registers used:
  2891 ;;		wreg, btemp1
  2892 ;; Tracked objects:
  2893 ;;		On entry : 0/0
  2894 ;;		On exit  : 0/0
  2895 ;;		Unchanged: 0/0
  2896 ;; Data sizes:     COMMON   BANK0   BANK1   BANK3   BANK2
  2897 ;;      Params:         2       0       0       0       0
  2898 ;;      Locals:         0       0       0       0       0
  2899 ;;      Temps:          0       0       0       0       0
  2900 ;;      Totals:         2       0       0       0       0
  2901 ;;Total ram usage:        2 bytes
  2902 ;; Hardware stack levels used: 1
  2903 ;; Hardware stack levels required when called: 1
  2904 ;; This function calls:
  2905 ;;		Nothing
  2906 ;; This function is called by:
  2907 ;;		_motor_control
  2908 ;; This function uses a non-reentrant model
  2909 ;;
  2910                           
  2911     05C3                     _limit_pwm:	
  2912                           ;psect for function _limit_pwm
  2913                           
  2914     05C3                     l1306:	
  2915                           ;incstack = 0
  2916                           ; Regs used in _limit_pwm: [wreg+btemp1]
  2917                           
  2918                           
  2919                           ;SSLINE.c: 14:     if (val > 255) return 255;
  2920     05C3  0875               	movf	limit_pwm@val+1,w
  2921     05C4  3A80               	xorlw	128
  2922     05C5  00FF               	movwf	btemp1
  2923     05C6  3081               	movlw	129
  2924     05C7  027F               	subwf	btemp1,w
  2925     05C8  1D03               	skipz
  2926     05C9  2DCC               	goto	u895
  2927     05CA  3000               	movlw	0
  2928     05CB  0274               	subwf	limit_pwm@val,w
  2929     05CC                     u895:
  2930     05CC  1C03               	skipc
  2931     05CD  2DCF               	goto	u891
  2932     05CE  2DD0               	goto	u890
  2933     05CF                     u891:
  2934     05CF  2DD2               	goto	l1312
  2935     05D0                     u890:
  2936     05D0                     l1308:
  2937     05D0  30FF               	movlw	255
  2938     05D1  2DE2               	goto	l214
  2939     05D2                     l1312:
  2940                           
  2941                           ;SSLINE.c: 15:     if (val < 10) return 0;
  2942     05D2  0875               	movf	limit_pwm@val+1,w
  2943     05D3  3A80               	xorlw	128
  2944     05D4  00FF               	movwf	btemp1
  2945     05D5  3080               	movlw	128
  2946     05D6  027F               	subwf	btemp1,w
  2947     05D7  1D03               	skipz
  2948     05D8  2DDB               	goto	u905
  2949     05D9  300A               	movlw	10
  2950     05DA  0274               	subwf	limit_pwm@val,w
  2951     05DB                     u905:
  2952     05DB  1803               	skipnc
  2953     05DC  2DDE               	goto	u901
  2954     05DD  2DDF               	goto	u900
  2955     05DE                     u901:
  2956     05DE  2DE1               	goto	l1318
  2957     05DF                     u900:
  2958     05DF                     l1314:
  2959     05DF  3000               	movlw	0
  2960     05E0  2DE2               	goto	l214
  2961     05E1                     l1318:
  2962                           
  2963                           ;SSLINE.c: 16:     return val;
  2964     05E1  0874               	movf	limit_pwm@val,w
  2965     05E2                     l214:
  2966     05E2  0008               	return
  2967     05E3                     __end_of_limit_pwm:
  2968                           
  2969                           	psect	text4
  2970     05FA                     __ptext4:	
  2971 ;; *************** function _abs *****************
  2972 ;; Defined at:
  2973 ;;		line 1 in file "C:\Program Files\Microchip\xc8\v3.10\pic\sources\c99\common\abs.c"
  2974 ;; Parameters:    Size  Location     Type
  2975 ;;  a               2    4[COMMON] int 
  2976 ;; Auto vars:     Size  Location     Type
  2977 ;;		None
  2978 ;; Return value:  Size  Location     Type
  2979 ;;                  2    4[COMMON] int 
  2980 ;; Registers used:
  2981 ;;		wreg, status,2, status,0
  2982 ;; Tracked objects:
  2983 ;;		On entry : 0/0
  2984 ;;		On exit  : 0/0
  2985 ;;		Unchanged: 0/0
  2986 ;; Data sizes:     COMMON   BANK0   BANK1   BANK3   BANK2
  2987 ;;      Params:         2       0       0       0       0
  2988 ;;      Locals:         0       0       0       0       0
  2989 ;;      Temps:          0       2       0       0       0
  2990 ;;      Totals:         2       2       0       0       0
  2991 ;;Total ram usage:        4 bytes
  2992 ;; Hardware stack levels used: 1
  2993 ;; Hardware stack levels required when called: 1
  2994 ;; This function calls:
  2995 ;;		Nothing
  2996 ;; This function is called by:
  2997 ;;		_motor_control
  2998 ;; This function uses a non-reentrant model
  2999 ;;
  3000                           
  3001     05FA                     _abs:	
  3002                           ;psect for function _abs
  3003                           
  3004     05FA                     l1622:	
  3005                           ;incstack = 0
  3006                           ; Regs used in _abs: [wreg+status,2+status,0]
  3007                           
  3008     05FA  1BF5               	btfsc	abs@a+1,7
  3009     05FB  2DFD               	goto	u1661
  3010     05FC  2DFE               	goto	u1660
  3011     05FD                     u1661:
  3012     05FD  2DFF               	goto	l1626
  3013     05FE                     u1660:
  3014     05FE                     l1624:
  3015     05FE  2E0C               	goto	l904
  3016     05FF                     l1626:
  3017     05FF  0974               	comf	abs@a,w
  3018     0600  1283               	bcf	3,5	;RP0=0, select bank0
  3019     0601  1303               	bcf	3,6	;RP1=0, select bank0
  3020     0602  00A0               	movwf	??_abs
  3021     0603  0975               	comf	abs@a+1,w
  3022     0604  00A1               	movwf	??_abs+1
  3023     0605  0AA0               	incf	??_abs,f
  3024     0606  1903               	skipnz
  3025     0607  0AA1               	incf	??_abs+1,f
  3026     0608  0820               	movf	??_abs,w
  3027     0609  00F4               	movwf	?_abs
  3028     060A  0821               	movf	??_abs+1,w
  3029     060B  00F5               	movwf	?_abs+1
  3030     060C                     l904:
  3031     060C  0008               	return
  3032     060D                     __end_of_abs:
  3033                           
  3034                           	psect	text5
  3035     0578                     __ptext5:	
  3036 ;; *************** function ___wmul *****************
  3037 ;; Defined at:
  3038 ;;		line 15 in file "C:\Program Files\Microchip\xc8\v3.10\pic\sources\c99\common\Umul16.c"
  3039 ;; Parameters:    Size  Location     Type
  3040 ;;  multiplier      2    0[BANK0 ] unsigned int 
  3041 ;;  multiplicand    2    2[BANK0 ] unsigned int 
  3042 ;; Auto vars:     Size  Location     Type
  3043 ;;  product         2    4[COMMON] unsigned int 
  3044 ;; Return value:  Size  Location     Type
  3045 ;;                  2    0[BANK0 ] unsigned int 
  3046 ;; Registers used:
  3047 ;;		wreg, status,2, status,0
  3048 ;; Tracked objects:
  3049 ;;		On entry : 0/0
  3050 ;;		On exit  : 0/0
  3051 ;;		Unchanged: 0/0
  3052 ;; Data sizes:     COMMON   BANK0   BANK1   BANK3   BANK2
  3053 ;;      Params:         0       4       0       0       0
  3054 ;;      Locals:         2       0       0       0       0
  3055 ;;      Temps:          0       0       0       0       0
  3056 ;;      Totals:         2       4       0       0       0
  3057 ;;Total ram usage:        6 bytes
  3058 ;; Hardware stack levels used: 1
  3059 ;; Hardware stack levels required when called: 1
  3060 ;; This function calls:
  3061 ;;		Nothing
  3062 ;; This function is called by:
  3063 ;;		_motor_control
  3064 ;; This function uses a non-reentrant model
  3065 ;;
  3066                           
  3067     0578                     ___wmul:	
  3068                           ;psect for function ___wmul
  3069                           
  3070     0578                     l1630:	
  3071                           ;incstack = 0
  3072                           ; Regs used in ___wmul: [wreg+status,2+status,0]
  3073                           
  3074     0578  01F4               	clrf	___wmul@product
  3075     0579  01F5               	clrf	___wmul@product+1
  3076     057A                     l1632:
  3077     057A  1283               	bcf	3,5	;RP0=0, select bank0
  3078     057B  1303               	bcf	3,6	;RP1=0, select bank0
  3079     057C  1C20               	btfss	___wmul@multiplier,0
  3080     057D  2D7F               	goto	u1671
  3081     057E  2D80               	goto	u1670
  3082     057F                     u1671:
  3083     057F  2D86               	goto	l441
  3084     0580                     u1670:
  3085     0580                     l1634:
  3086     0580  0822               	movf	___wmul@multiplicand,w
  3087     0581  07F4               	addwf	___wmul@product,f
  3088     0582  1803               	skipnc
  3089     0583  0AF5               	incf	___wmul@product+1,f
  3090     0584  0823               	movf	___wmul@multiplicand+1,w
  3091     0585  07F5               	addwf	___wmul@product+1,f
  3092     0586                     l441:
  3093     0586  3001               	movlw	1
  3094     0587                     u1685:
  3095     0587  1003               	clrc
  3096     0588  0DA2               	rlf	___wmul@multiplicand,f
  3097     0589  0DA3               	rlf	___wmul@multiplicand+1,f
  3098     058A  3EFF               	addlw	-1
  3099     058B  1D03               	skipz
  3100     058C  2D87               	goto	u1685
  3101     058D                     l1636:
  3102     058D  3001               	movlw	1
  3103     058E                     u1695:
  3104     058E  1003               	clrc
  3105     058F  0CA1               	rrf	___wmul@multiplier+1,f
  3106     0590  0CA0               	rrf	___wmul@multiplier,f
  3107     0591  3EFF               	addlw	-1
  3108     0592  1D03               	skipz
  3109     0593  2D8E               	goto	u1695
  3110     0594                     l1638:
  3111     0594  0820               	movf	___wmul@multiplier,w
  3112     0595  0421               	iorwf	___wmul@multiplier+1,w
  3113     0596  1D03               	btfss	3,2
  3114     0597  2D99               	goto	u1701
  3115     0598  2D9A               	goto	u1700
  3116     0599                     u1701:
  3117     0599  2D7A               	goto	l1632
  3118     059A                     u1700:
  3119     059A                     l1640:
  3120     059A  0875               	movf	___wmul@product+1,w
  3121     059B  00A1               	movwf	?___wmul+1
  3122     059C  0874               	movf	___wmul@product,w
  3123     059D  00A0               	movwf	?___wmul
  3124     059E                     l443:
  3125     059E  0008               	return
  3126     059F                     __end_of___wmul:
  3127                           
  3128                           	psect	text6
  3129     060D                     __ptext6:	
  3130 ;; *************** function _Status_Car *****************
  3131 ;; Defined at:
  3132 ;;		line 4 in file "CARDRIVER.c"
  3133 ;; Parameters:    Size  Location     Type
  3134 ;;  status          1    wreg     unsigned char 
  3135 ;;  sp1             2    0[BANK0 ] unsigned int 
  3136 ;;  sp2             2    2[BANK0 ] unsigned int 
  3137 ;; Auto vars:     Size  Location     Type
  3138 ;;  status          1    4[BANK0 ] unsigned char 
  3139 ;; Return value:  Size  Location     Type
  3140 ;;                  1    wreg      void 
  3141 ;; Registers used:
  3142 ;;		wreg, status,2, status,0, pclath, cstack
  3143 ;; Tracked objects:
  3144 ;;		On entry : 0/0
  3145 ;;		On exit  : 0/0
  3146 ;;		Unchanged: 0/0
  3147 ;; Data sizes:     COMMON   BANK0   BANK1   BANK3   BANK2
  3148 ;;      Params:         0       4       0       0       0
  3149 ;;      Locals:         0       1       0       0       0
  3150 ;;      Temps:          0       0       0       0       0
  3151 ;;      Totals:         0       5       0       0       0
  3152 ;;Total ram usage:        5 bytes
  3153 ;; Hardware stack levels used: 1
  3154 ;; Hardware stack levels required when called: 1
  3155 ;; This function calls:
  3156 ;;		_analogWrite_8bits
  3157 ;; This function is called by:
  3158 ;;		_main
  3159 ;;		_motor_control
  3160 ;; This function uses a non-reentrant model
  3161 ;;
  3162                           
  3163     060D                     _Status_Car:	
  3164                           ;psect for function _Status_Car
  3165                           
  3166                           
  3167                           ;incstack = 0
  3168                           ; Regs used in _Status_Car: [wreg+status,2+status,0+pclath+cstack]
  3169                           ;Status_Car@status stored from wreg
  3170     060D  1283               	bcf	3,5	;RP0=0, select bank0
  3171     060E  1303               	bcf	3,6	;RP1=0, select bank0
  3172     060F  00A4               	movwf	Status_Car@status
  3173     0610                     l1618:
  3174                           
  3175                           ;CARDRIVER.c: 5:     PORTD &= 0xF0;
  3176     0610  30F0               	movlw	240
  3177     0611  0588               	andwf	8,f	;volatile
  3178                           
  3179                           ;CARDRIVER.c: 6:     PORTD |= status;
  3180     0612  0824               	movf	Status_Car@status,w	;volatile
  3181     0613  0488               	iorwf	8,f	;volatile
  3182     0614                     l1620:
  3183                           
  3184                           ;CARDRIVER.c: 7:     analogWrite_8bits(sp1, sp2);
  3185     0614  0822               	movf	Status_Car@sp2,w
  3186     0615  00F4               	movwf	analogWrite_8bits@cp2
  3187     0616  0820               	movf	Status_Car@sp1,w
  3188     0617  120A  118A  262C  120A  118A  	fcall	_analogWrite_8bits
  3189     061C                     l352:
  3190     061C  0008               	return
  3191     061D                     __end_of_Status_Car:
  3192                           
  3193                           	psect	text7
  3194     061D                     __ptext7:	
  3195 ;; *************** function _Car_Forward *****************
  3196 ;; Defined at:
  3197 ;;		line 19 in file "CARDRIVER.c"
  3198 ;; Parameters:    Size  Location     Type
  3199 ;;  pwmL            2    0[BANK0 ] unsigned int 
  3200 ;;  pwmR            2    2[BANK0 ] unsigned int 
  3201 ;; Auto vars:     Size  Location     Type
  3202 ;;		None
  3203 ;; Return value:  Size  Location     Type
  3204 ;;                  1    wreg      void 
  3205 ;; Registers used:
  3206 ;;		wreg, status,2, status,0, pclath, cstack
  3207 ;; Tracked objects:
  3208 ;;		On entry : 0/0
  3209 ;;		On exit  : 0/0
  3210 ;;		Unchanged: 0/0
  3211 ;; Data sizes:     COMMON   BANK0   BANK1   BANK3   BANK2
  3212 ;;      Params:         0       4       0       0       0
  3213 ;;      Locals:         0       0       0       0       0
  3214 ;;      Temps:          0       0       0       0       0
  3215 ;;      Totals:         0       4       0       0       0
  3216 ;;Total ram usage:        4 bytes
  3217 ;; Hardware stack levels used: 1
  3218 ;; Hardware stack levels required when called: 1
  3219 ;; This function calls:
  3220 ;;		_analogWrite_8bits
  3221 ;; This function is called by:
  3222 ;;		_main
  3223 ;;		_motor_control
  3224 ;; This function uses a non-reentrant model
  3225 ;;
  3226                           
  3227     061D                     _Car_Forward:	
  3228                           ;psect for function _Car_Forward
  3229                           
  3230     061D                     l1614:	
  3231                           ;incstack = 0
  3232                           ; Regs used in _Car_Forward: [wreg+status,2+status,0+pclath+cstack]
  3233                           
  3234                           
  3235                           ;CARDRIVER.c: 20:     PORTD &= 0xF0;
  3236     061D  30F0               	movlw	240
  3237     061E  1283               	bcf	3,5	;RP0=0, select bank0
  3238     061F  1303               	bcf	3,6	;RP1=0, select bank0
  3239     0620  0588               	andwf	8,f	;volatile
  3240                           
  3241                           ;CARDRIVER.c: 21:     PORTD |= 0x05;
  3242     0621  3005               	movlw	5
  3243     0622  0488               	iorwf	8,f	;volatile
  3244     0623                     l1616:
  3245                           
  3246                           ;CARDRIVER.c: 22:     analogWrite_8bits(pwmL, pwmR);
  3247     0623  0822               	movf	Car_Forward@pwmR,w
  3248     0624  00F4               	movwf	analogWrite_8bits@cp2
  3249     0625  0820               	movf	Car_Forward@pwmL,w
  3250     0626  120A  118A  262C  120A  118A  	fcall	_analogWrite_8bits
  3251     062B                     l355:
  3252     062B  0008               	return
  3253     062C                     __end_of_Car_Forward:
  3254                           
  3255                           	psect	text8
  3256     062C                     __ptext8:	
  3257 ;; *************** function _analogWrite_8bits *****************
  3258 ;; Defined at:
  3259 ;;		line 34 in file "analogWrite.c"
  3260 ;; Parameters:    Size  Location     Type
  3261 ;;  cp1             1    wreg     unsigned char 
  3262 ;;  cp2             1    4[COMMON] unsigned char 
  3263 ;; Auto vars:     Size  Location     Type
  3264 ;;  cp1             1    5[COMMON] unsigned char 
  3265 ;; Return value:  Size  Location     Type
  3266 ;;                  1    wreg      void 
  3267 ;; Registers used:
  3268 ;;		wreg
  3269 ;; Tracked objects:
  3270 ;;		On entry : 0/0
  3271 ;;		On exit  : 0/0
  3272 ;;		Unchanged: 0/0
  3273 ;; Data sizes:     COMMON   BANK0   BANK1   BANK3   BANK2
  3274 ;;      Params:         1       0       0       0       0
  3275 ;;      Locals:         1       0       0       0       0
  3276 ;;      Temps:          0       0       0       0       0
  3277 ;;      Totals:         2       0       0       0       0
  3278 ;;Total ram usage:        2 bytes
  3279 ;; Hardware stack levels used: 1
  3280 ;; Hardware stack levels required when called: 1
  3281 ;; This function calls:
  3282 ;;		Nothing
  3283 ;; This function is called by:
  3284 ;;		_Status_Car
  3285 ;;		_Car_Forward
  3286 ;; This function uses a non-reentrant model
  3287 ;;
  3288                           
  3289     062C                     _analogWrite_8bits:	
  3290                           ;psect for function _analogWrite_8bits
  3291                           
  3292                           
  3293                           ;incstack = 0
  3294                           ; Regs used in _analogWrite_8bits: [wreg]
  3295                           ;analogWrite_8bits@cp1 stored from wreg
  3296     062C  00F5               	movwf	analogWrite_8bits@cp1
  3297     062D                     l1296:
  3298                           
  3299                           ;analogWrite.c: 35:     CCPR1L = cp1;
  3300     062D  0875               	movf	analogWrite_8bits@cp1,w
  3301     062E  1283               	bcf	3,5	;RP0=0, select bank0
  3302     062F  1303               	bcf	3,6	;RP1=0, select bank0
  3303     0630  0095               	movwf	21	;volatile
  3304                           
  3305                           ;analogWrite.c: 36:     CCPR2L = cp2;
  3306     0631  0874               	movf	analogWrite_8bits@cp2,w
  3307     0632  009B               	movwf	27	;volatile
  3308     0633                     l172:
  3309     0633  0008               	return
  3310     0634                     __end_of_analogWrite_8bits:
  3311                           
  3312                           	psect	text9
  3313     05E3                     __ptext9:	
  3314 ;; *************** function _analogWrite_init *****************
  3315 ;; Defined at:
  3316 ;;		line 12 in file "analogWrite.c"
  3317 ;; Parameters:    Size  Location     Type
  3318 ;;  frequency       1    wreg     unsigned char 
  3319 ;; Auto vars:     Size  Location     Type
  3320 ;;  frequency       1    4[COMMON] unsigned char 
  3321 ;; Return value:  Size  Location     Type
  3322 ;;                  1    wreg      void 
  3323 ;; Registers used:
  3324 ;;		wreg, status,2
  3325 ;; Tracked objects:
  3326 ;;		On entry : 0/0
  3327 ;;		On exit  : 0/0
  3328 ;;		Unchanged: 0/0
  3329 ;; Data sizes:     COMMON   BANK0   BANK1   BANK3   BANK2
  3330 ;;      Params:         0       0       0       0       0
  3331 ;;      Locals:         1       0       0       0       0
  3332 ;;      Temps:          0       0       0       0       0
  3333 ;;      Totals:         1       0       0       0       0
  3334 ;;Total ram usage:        1 bytes
  3335 ;; Hardware stack levels used: 1
  3336 ;; Hardware stack levels required when called: 1
  3337 ;; This function calls:
  3338 ;;		Nothing
  3339 ;; This function is called by:
  3340 ;;		_main
  3341 ;; This function uses a non-reentrant model
  3342 ;;
  3343                           
  3344     05E3                     _analogWrite_init:	
  3345                           ;psect for function _analogWrite_init
  3346                           
  3347                           
  3348                           ;incstack = 0
  3349                           ; Regs used in _analogWrite_init: [wreg+status,2]
  3350                           ;analogWrite_init@frequency stored from wreg
  3351     05E3  00F4               	movwf	analogWrite_init@frequency
  3352     05E4                     l954:
  3353                           
  3354                           ;analogWrite.c: 13:     PR2 = frequency;
  3355     05E4  0874               	movf	analogWrite_init@frequency,w
  3356     05E5  1683               	bsf	3,5	;RP0=1, select bank1
  3357     05E6  1303               	bcf	3,6	;RP1=0, select bank1
  3358     05E7  0092               	movwf	18	;volatile
  3359     05E8                     l956:
  3360                           
  3361                           ;analogWrite.c: 15:     CCP2CON = 0x0C;
  3362     05E8  300C               	movlw	12
  3363     05E9  1283               	bcf	3,5	;RP0=0, select bank0
  3364     05EA  1303               	bcf	3,6	;RP1=0, select bank0
  3365     05EB  009D               	movwf	29	;volatile
  3366     05EC                     l958:
  3367                           
  3368                           ;analogWrite.c: 16:     CCP1CON = 0x0C;
  3369     05EC  300C               	movlw	12
  3370     05ED  0097               	movwf	23	;volatile
  3371     05EE                     l960:
  3372                           
  3373                           ;analogWrite.c: 18:     TRISC1 = 0;
  3374     05EE  1683               	bsf	3,5	;RP0=1, select bank1
  3375     05EF  1303               	bcf	3,6	;RP1=0, select bank1
  3376     05F0  1087               	bcf	7,1	;volatile
  3377     05F1                     l962:
  3378                           
  3379                           ;analogWrite.c: 19:     TRISC2 = 0;
  3380     05F1  1107               	bcf	7,2	;volatile
  3381     05F2                     l964:
  3382                           
  3383                           ;analogWrite.c: 21:     CCPR1L = 0;
  3384     05F2  1283               	bcf	3,5	;RP0=0, select bank0
  3385     05F3  1303               	bcf	3,6	;RP1=0, select bank0
  3386     05F4  0195               	clrf	21	;volatile
  3387     05F5                     l966:
  3388                           
  3389                           ;analogWrite.c: 22:     CCPR2L = 0;
  3390     05F5  019B               	clrf	27	;volatile
  3391     05F6                     l968:
  3392                           
  3393                           ;analogWrite.c: 24:     TMR2 = 0X00;
  3394     05F6  0191               	clrf	17	;volatile
  3395     05F7                     l970:
  3396                           
  3397                           ;analogWrite.c: 26:     T2CON = 0b00000100;
  3398     05F7  3004               	movlw	4
  3399     05F8  0092               	movwf	18	;volatile
  3400     05F9                     l169:
  3401     05F9  0008               	return
  3402     05FA                     __end_of_analogWrite_init:
  3403                           
  3404                           	psect	text10
  3405     0634                     __ptext10:	
  3406 ;; *************** function _Initialize_interrupt *****************
  3407 ;; Defined at:
  3408 ;;		line 23 in file "interrupt_pic.c"
  3409 ;; Parameters:    Size  Location     Type
  3410 ;;		None
  3411 ;; Auto vars:     Size  Location     Type
  3412 ;;		None
  3413 ;; Return value:  Size  Location     Type
  3414 ;;                  1    wreg      void 
  3415 ;; Registers used:
  3416 ;;		None
  3417 ;; Tracked objects:
  3418 ;;		On entry : 0/0
  3419 ;;		On exit  : 0/0
  3420 ;;		Unchanged: 0/0
  3421 ;; Data sizes:     COMMON   BANK0   BANK1   BANK3   BANK2
  3422 ;;      Params:         0       0       0       0       0
  3423 ;;      Locals:         0       0       0       0       0
  3424 ;;      Temps:          0       0       0       0       0
  3425 ;;      Totals:         0       0       0       0       0
  3426 ;;Total ram usage:        0 bytes
  3427 ;; Hardware stack levels used: 1
  3428 ;; Hardware stack levels required when called: 1
  3429 ;; This function calls:
  3430 ;;		Nothing
  3431 ;; This function is called by:
  3432 ;;		_main
  3433 ;; This function uses a non-reentrant model
  3434 ;;
  3435                           
  3436     0634                     _Initialize_interrupt:	
  3437                           ;psect for function _Initialize_interrupt
  3438                           
  3439     0634                     l972:	
  3440                           ;incstack = 0
  3441                           ; Regs used in _Initialize_interrupt: []
  3442                           
  3443                           
  3444                           ;interrupt_pic.c: 24:     RBIF = 0;
  3445     0634  100B               	bcf	11,0	;volatile
  3446                           
  3447                           ;interrupt_pic.c: 25:     RBIE = 1;
  3448     0635  158B               	bsf	11,3	;volatile
  3449                           
  3450                           ;interrupt_pic.c: 26:     GIE = 1;
  3451     0636  178B               	bsf	11,7	;volatile
  3452                           
  3453                           ;interrupt_pic.c: 27:     IOCB = 0x07;
  3454     0637  3007               	movlw	7
  3455     0638  1683               	bsf	3,5	;RP0=1, select bank1
  3456     0639  1303               	bcf	3,6	;RP1=0, select bank1
  3457     063A  0096               	movwf	22	;volatile
  3458     063B                     l335:
  3459     063B  0008               	return
  3460     063C                     __end_of_Initialize_interrupt:
  3461                           
  3462                           	psect	text11
  3463     059F                     __ptext11:	
  3464 ;; *************** function _isr *****************
  3465 ;; Defined at:
  3466 ;;		line 10 in file "interrupt_pic.c"
  3467 ;; Parameters:    Size  Location     Type
  3468 ;;		None
  3469 ;; Auto vars:     Size  Location     Type
  3470 ;;		None
  3471 ;; Return value:  Size  Location     Type
  3472 ;;                  1    wreg      void 
  3473 ;; Registers used:
  3474 ;;		wreg, status,2, status,0
  3475 ;; Tracked objects:
  3476 ;;		On entry : 0/0
  3477 ;;		On exit  : 0/0
  3478 ;;		Unchanged: 0/0
  3479 ;; Data sizes:     COMMON   BANK0   BANK1   BANK3   BANK2
  3480 ;;      Params:         0       0       0       0       0
  3481 ;;      Locals:         0       0       0       0       0
  3482 ;;      Temps:          4       0       0       0       0
  3483 ;;      Totals:         4       0       0       0       0
  3484 ;;Total ram usage:        4 bytes
  3485 ;; Hardware stack levels used: 1
  3486 ;; This function calls:
  3487 ;;		Nothing
  3488 ;; This function is called by:
  3489 ;;		Interrupt level 1
  3490 ;; This function uses a non-reentrant model
  3491 ;;
  3492                           
  3493     059F                     _isr:	
  3494                           ;psect for function _isr
  3495                           
  3496     059F                     i1l1282:
  3497                           
  3498                           ;interrupt_pic.c: 11:     if (RBIE == 1 && RBIF == 1) {
  3499     059F  1D8B               	btfss	11,3	;volatile
  3500     05A0  2DA2               	goto	u86_21
  3501     05A1  2DA3               	goto	u86_20
  3502     05A2                     u86_21:
  3503     05A2  2DBC               	goto	i1l332
  3504     05A3                     u86_20:
  3505     05A3                     i1l1284:
  3506     05A3  1C0B               	btfss	11,0	;volatile
  3507     05A4  2DA6               	goto	u87_21
  3508     05A5  2DA7               	goto	u87_20
  3509     05A6                     u87_21:
  3510     05A6  2DBC               	goto	i1l332
  3511     05A7                     u87_20:
  3512     05A7                     i1l1286:
  3513                           
  3514                           ;interrupt_pic.c: 12:         read_dataPortB = PORTB & 0b01000000;
  3515     05A7  1283               	bcf	3,5	;RP0=0, select bank0
  3516     05A8  1303               	bcf	3,6	;RP1=0, select bank0
  3517     05A9  0806               	movf	6,w	;volatile
  3518     05AA  3940               	andlw	64
  3519     05AB  00F0               	movwf	??_isr
  3520     05AC  01F1               	clrf	??_isr+1
  3521     05AD  0870               	movf	??_isr,w
  3522     05AE  00F6               	movwf	_read_dataPortB
  3523     05AF  0871               	movf	??_isr+1,w
  3524     05B0  00F7               	movwf	_read_dataPortB+1
  3525     05B1                     i1l1288:
  3526                           
  3527                           ;interrupt_pic.c: 13:         if (read_dataPortB == 0x40) {
  3528     05B1  3040               	movlw	64
  3529     05B2  0676               	xorwf	_read_dataPortB,w
  3530     05B3  0477               	iorwf	_read_dataPortB+1,w
  3531     05B4  1D03               	btfss	3,2
  3532     05B5  2DB7               	goto	u88_21
  3533     05B6  2DB8               	goto	u88_20
  3534     05B7                     u88_21:
  3535     05B7  2DBB               	goto	i1l1294
  3536     05B8                     u88_20:
  3537     05B8                     i1l1290:
  3538                           
  3539                           ;interrupt_pic.c: 14:             autocar = 0;
  3540     05B8  01F8               	clrf	_autocar
  3541                           
  3542                           ;interrupt_pic.c: 15:             drivercar = 0;
  3543     05B9  01F9               	clrf	_drivercar
  3544     05BA                     i1l1292:
  3545                           
  3546                           ;interrupt_pic.c: 16:             RE0=1;
  3547     05BA  1409               	bsf	9,0	;volatile
  3548     05BB                     i1l1294:
  3549                           
  3550                           ;interrupt_pic.c: 19:         RBIF = 0;
  3551     05BB  100B               	bcf	11,0	;volatile
  3552     05BC                     i1l332:
  3553     05BC  0873               	movf	??_isr+3,w
  3554     05BD  008A               	movwf	10
  3555     05BE  0E72               	swapf	??_isr+2,w
  3556     05BF  0083               	movwf	3
  3557     05C0  0EFE               	swapf	btemp,f
  3558     05C1  0E7E               	swapf	btemp,w
  3559     05C2  0009               	retfie
  3560     05C3                     __end_of_isr:
  3561     0002                     ___latbits      equ	2
  3562     007E                     btemp           set	126	;btemp
  3563     007E                     btemp0          set	126
  3564     007F                     btemp1          set	127
  3565     007E                     wtemp0          set	126
  3566     007F                     wtemp0a         set	127
  3567     007F                     ttemp0a         set	127
  3568     0080                     ltemp0a         set	128
  3569                           
  3570                           	psect	intentry
  3571     0004                     __pintentry:	
  3572                           ;incstack = 0
  3573                           ; Regs used in _isr: [wreg+status,2+status,0]
  3574                           
  3575     0004                     interrupt_function:
  3576     007E                     saved_w         set	btemp
  3577     0004  00FE               	movwf	btemp
  3578     0005  0E03               	swapf	3,w
  3579     0006  00F2               	movwf	??_isr+2
  3580     0007  080A               	movf	10,w
  3581     0008  00F3               	movwf	??_isr+3
  3582     0009  120A  118A  2D9F   	ljmp	_isr
  3583                           
  3584                           	psect	config
  3585                           
  3586                           ;Config register CONFIG1 @ 0x2007
  3587                           ;	Oscillator Selection bits
  3588                           ;	FOSC = HS, HS oscillator: High-speed crystal/resonator on RA6/OSC2/CLKOUT and RA7/OSC1
      +                          /CLKIN
  3589                           ;	Watchdog Timer Enable bit
  3590                           ;	WDTE = OFF, WDT disabled and can be enabled by SWDTEN bit of the WDTCON register
  3591                           ;	Power-up Timer Enable bit
  3592                           ;	PWRTE = ON, PWRT enabled
  3593                           ;	RE3/MCLR pin function select bit
  3594                           ;	MCLRE = 0x1, unprogrammed default
  3595                           ;	Code Protection bit
  3596                           ;	CP = ON, Program memory code protection is enabled
  3597                           ;	Data Code Protection bit
  3598                           ;	CPD = ON, Data memory code protection is enabled
  3599                           ;	Brown Out Reset Selection bits
  3600                           ;	BOREN = ON, BOR enabled
  3601                           ;	Internal External Switchover bit
  3602                           ;	IESO = 0x1, unprogrammed default
  3603                           ;	Fail-Safe Clock Monitor Enabled bit
  3604                           ;	FCMEN = 0x1, unprogrammed default
  3605                           ;	Low Voltage Programming Enable bit
  3606                           ;	LVP = OFF, RB3 pin has digital I/O, HV on MCLR must be used for programming
  3607                           ;	In-Circuit Debugger Mode bit
  3608                           ;	DEBUG = 0x1, unprogrammed default
  3609     2007                     	org	8199
  3610     2007  2F22               	dw	12066
  3611                           
  3612                           ;Config register CONFIG2 @ 0x2008
  3613                           ;	Brown-out Reset Selection bit
  3614                           ;	BOR4V = 0x1, unprogrammed default
  3615                           ;	Flash Program Memory Self Write Enable bits
  3616                           ;	WRT = OFF, Write protection off
  3617     2008                     	org	8200
  3618     2008  3FFF               	dw	16383

Data Sizes:
    Strings     0
    Constant    0
    Data        0
    BSS         16
    Persistent  0
    Stack       0

Auto Spaces:
    Space          Size  Autos    Used
    COMMON           14      6      10
    BANK0            80     39      51
    BANK1            80      0       0
    BANK3            96      0       0
    BANK2            96      0       0

Pointer List with Targets:

    None.

Critical Paths under _main in COMMON

    _main->_read_line_Error
    _motor_control->___wmul
    _motor_control->_abs
    _motor_control->_limit_pwm
    _Status_Car->_analogWrite_8bits
    _Car_Forward->_analogWrite_8bits

Critical Paths under _isr in COMMON

    None.

Critical Paths under _main in BANK0

    _main->_motor_control
    _motor_control->_Status_Car

Critical Paths under _isr in BANK0

    None.

Critical Paths under _main in BANK1

    None.

Critical Paths under _isr in BANK1

    None.

Critical Paths under _main in BANK3

    None.

Critical Paths under _isr in BANK3

    None.

Critical Paths under _main in BANK2

    None.

Critical Paths under _isr in BANK2

    None.

Call Graph Tables:

 ---------------------------------------------------------------------------------
 (Depth) Function   	        Calls       Base Space   Used Autos Params    Refs
 ---------------------------------------------------------------------------------
 (0) _main                                                 2     2      0    2556
                                             37 BANK0      2     2      0
                        _Car_Forward
               _Initialize_interrupt
                         _Status_Car
                   _analogWrite_init
                      _motor_control
                    _read_line_Error
 ---------------------------------------------------------------------------------
 (1) _read_line_Error                                      2     2      0      36
                                              4 COMMON     2     2      0
 ---------------------------------------------------------------------------------
 (1) _motor_control                                       32    32      0    2144
                                              5 BANK0     32    32      0
                        _Car_Forward
                         _Status_Car
                             ___wmul
                                _abs
                          _limit_pwm
 ---------------------------------------------------------------------------------
 (2) _limit_pwm                                            2     0      2      68
                                              4 COMMON     2     0      2
 ---------------------------------------------------------------------------------
 (2) _abs                                                  4     2      2     123
                                              4 COMMON     2     0      2
                                              0 BANK0      2     2      0
 ---------------------------------------------------------------------------------
 (2) ___wmul                                               6     2      4     148
                                              4 COMMON     2     2      0
                                              0 BANK0      4     0      4
 ---------------------------------------------------------------------------------
 (2) _Status_Car                                           5     1      4     222
                                              0 BANK0      5     1      4
                  _analogWrite_8bits
 ---------------------------------------------------------------------------------
 (2) _Car_Forward                                          4     0      4     139
                                              0 BANK0      4     0      4
                  _analogWrite_8bits
 ---------------------------------------------------------------------------------
 (3) _analogWrite_8bits                                    2     1      1      53
                                              4 COMMON     2     1      1
 ---------------------------------------------------------------------------------
 (1) _analogWrite_init                                     1     1      0      15
                                              4 COMMON     1     1      0
 ---------------------------------------------------------------------------------
 (1) _Initialize_interrupt                                 0     0      0       0
 ---------------------------------------------------------------------------------
 Estimated maximum stack depth 3
 ---------------------------------------------------------------------------------
 (Depth) Function   	        Calls       Base Space   Used Autos Params    Refs
 ---------------------------------------------------------------------------------
 (4) _isr                                                  4     4      0       0
                                              0 COMMON     4     4      0
 ---------------------------------------------------------------------------------
 Estimated maximum stack depth 4
 ---------------------------------------------------------------------------------

 Call Graph Graphs:

 _main (ROOT)
   _Car_Forward
     _analogWrite_8bits
   _Initialize_interrupt
   _Status_Car
     _analogWrite_8bits
   _analogWrite_init
   _motor_control
     _Car_Forward
     _Status_Car
     ___wmul
     _abs
     _limit_pwm
   _read_line_Error

 _isr (ROOT)

Address spaces:
Name               Size   Autos  Total    Usage
BITCOMMON           14      0       0      0.0%
BITBANK0            80      0       0      0.0%
BITBANK1            80      0       0      0.0%
BITBANK3            96      0       0      0.0%
BITBANK2            96      0       0      0.0%
COMMON              14      6      10     71.4%
BANK0               80     39      51     63.7%
BANK1               80      0       0      0.0%
BANK3               96      0       0      0.0%
BANK2               96      0       0      0.0%
STACK                0      0       0      0.0%
DATA                 0      0      61      0.0%


Microchip Technology PIC Macro Assembler V3.10 build 20250813170317 
Symbol Table                                                                                   Sun Dec 21 10:02:33 2025

                          l74 0390                            l66 0361                            l91 0437  
                          l84 03CC                            l85 03F1                            l69 0379  
                          l94 045A                            l88 0414           ___wmul@multiplicand 0022  
                         l220 04B8                           l214 05E2                           l230 04FD  
                         l222 04C5                           l240 0552                           l232 050E  
                         l224 04D2                           l234 051B                           l226 04DF  
                         l218 04A3                           l251 031F                           l172 0633  
                         l236 0528                           l228 04EC                           l245 0577  
                         l238 053D                           l335 063B                           l352 061C  
                         l169 05F9                           l441 0586                           l355 062B  
                         l443 059E                           l904 060C                           l960 05EE  
                         l970 05F7                           l962 05F1                           l954 05E4  
                         l972 0634                           l964 05F2                           l956 05E8  
                         l966 05F5                           l958 05EC                           l968 05F6  
                         _GIE 005F                           _RB0 0030                           _RB1 0031  
                         _RB2 0032                           _RB3 0033                           _RD0 0040  
                         _RB4 0034                           _RC3 003B                           _RB5 0035  
                         _RC4 003C                           _RE0 0048                           _RC5 003D  
                         _RD4 0044                           _RC6 003E                           _RD5 0045  
                         _RD6 0046                           _PR2 0092                           u900 05DF  
                         u901 05DE                           u905 05DB                           u960 0492  
                         u961 0491                           u890 05D0                           u970 0496  
                         u891 05CF                           u971 0495                           u980 049A  
                         u981 0499                           u990 04A7                           u895 05CC  
                         u991 04A6                           _abs 05FA                           _isr 059F  
                        ?_abs 0074                          l1312 05D2                          l1400 0566  
                        l1314 05DF                          l1306 05C3                          l1402 056A  
                        l1308 05D0                          l1404 056D                          l1318 05E1  
                        l1350 0496                          l1360 04BC                          l1352 049A  
                        l1344 048A                          l1370 04F4                          l1362 04C9  
                        l1354 04A7                          l1346 048C                          l1620 0614  
                        l1700 01E3                          l1380 052C                          l1372 0501  
                        l1364 04D6                          l1356 04AB                          l1348 0492  
                        l1614 061D                          l1630 0578                          l1622 05FA  
                        l1710 021B                          l1702 01F0                          l1390 0549  
                        l1382 0530                          l1374 0505                          l1366 04E3  
                        l1358 04AF                          l1296 062D                          l1616 0623  
                        l1640 059A                          l1632 057A                          l1624 05FE  
                        l1720 0242                          l1712 0222                          l1704 01F7  
                        l1392 0556                          l1384 0534                          l1376 0512  
                        l1368 04F0                          l1800 0399                          l1618 0610  
                        l1634 0580                          l1626 05FF                          l1730 0295  
                        l1714 0228                          l1706 01FD                          l1722 0250  
                        l1650 0045                          l1394 055A                          l1386 0541  
                        l1378 051F                          l1810 03B8                          l1802 039E  
                        l1636 058D                          l1740 02BC                          l1732 029C  
                        l1724 0268                          l1716 0235                          l1708 020C  
                        l1660 008C                          l1652 0056                          l1644 0025  
                        l1396 055C                          l1388 0545                          l1820 03E2  
                        l1812 03BE                          l1804 03A3                          l1638 0594  
                        l1750 02F4                          l1734 02A2                          l1742 02CB  
                        l1726 0277                          l1718 023C                          l1670 00E0  
                        l1662 009E                          l1646 002F                          l1398 0560  
                        l1830 0422                          l1822 03F5                          l1814 03C0  
                        l1806 03A8                          l1752 02FB                          l1744 02DA  
                        l1736 02AF                          l1728 0286                          l1680 0159  
                        l1672 00EF                          l1664 00AD                          l1648 0038  
                        l1656 0067                          l1840 045E                          l1832 0428  
                        l1824 03FF                          l1816 03D2                          l1808 03AE  
                        l1760 0324                          l1754 0301                          l1746 02E1  
                        l1738 02B6                          l1690 01A9                          l1682 0161  
                        l1674 0107                          l1666 00BF                          l1658 007D  
                        l1850 0481                          l1842 0468                          l1834 043B  
                        l1826 0405                          l1818 03DC                          l1770 033C  
                        l1762 0328                          l1748 02E7                          l1756 0310  
                        l1692 01B8                          l1684 0171                          l1676 011F  
                        l1668 00CE                          l1844 046E                          l1836 0445  
                        l1828 0418                          l1780 0355                          l1772 033F  
                        l1764 032A                          l1694 01C7                          l1686 0182  
                        l1678 012D                          l1846 0470                          l1838 044B  
                        l1790 037D                          l1782 0365                          l1774 0343  
                        l1766 0331                          l1758 0320                          l1696 01D6  
                        l1688 0193                          l1848 047C                          l1792 0387  
                        l1784 036F                          l1776 034D                          l1768 0337  
                        l1698 01DD                          l1794 038D                          l1786 0375  
                        l1778 0353                          l1796 038F                          l1788 0376  
                        l1798 0394                          ?_isr 0070                          u1000 04AB  
                        u1001 04AA                          u1010 04AF                          u1011 04AE  
                        u1100 0512                          u1020 04BC                          u1101 0511  
                        u1021 04BB                          u1110 051F                          u1030 04C9  
                        u1111 051E                          u1031 04C8                          u1200 0566  
                        u1120 052C                          u1040 04D6                          u2000 0399  
                        u1201 0565                          u1121 052B                          u1041 04D5  
                        u2001 0398                          u1130 0530                          u1050 04E3  
                        u2010 039E                          u1131 052F                          u1051 04E2  
                        u2011 039D                          u1140 0534                          u1060 04F0  
                        u2100 043B                          u2020 03AE                          u1141 0533  
                        u1061 04EF                          u2101 043A                          u2021 03AD  
                        u1150 0541                          u1070 04F4                          u2110 044B  
                        u2030 03BE                          u1151 0540                          u1071 04F3  
                        u2111 044A                          u2031 03BD                          u1160 0545  
                        u1080 0501                          u2120 045E                          u2040 03D2  
                        u1161 0544                          u1081 0500                          u2121 045D  
                        u2041 03D1                          u1170 0549                          u1090 0505  
                        u2130 046E                          u2050 03E2                          u1171 0548  
                        u1091 0504                          u2131 046D                          u2051 03E1  
                        u1180 0556                          u2140 0481                          u2060 03F5  
                        _IOCB 0096                          u1181 0555                          u2141 0480  
                        u2061 03F4                          u1190 055A                          u2150 0486  
                        u2070 0405                          u1191 0559                          u2151 0485  
                        u2071 0404                          u2207 03D8                          u2080 0418  
                        u2081 0417                          u2217 03FB                          u2090 0428  
                        u2091 0427                          u2227 041E                          u1700 059A  
                        u1701 0599                          u2237 0441                          u1710 0038  
                        u1711 0037                          u2247 0464                          u2167 0349  
                        u1800 01B8                          u1720 0045                          u1801 01B7  
                        u1721 0044                          u2177 036B                          u1810 01C7  
                        u1730 007D                          u1811 01C6                          u1731 007C  
                        u2187 0383                          u1660 05FE                          u1900 02AF  
                        u1820 01D6                          u1740 009E                          u1661 05FD  
                        u1901 02AE                          u1821 01D5                          u1741 009D  
                        u1725 0041                          u2197 03B4                          u1670 0580  
                        u1910 02DA                          u1830 01F0                          u1750 00BF  
                        u1671 057F                          u1911 02D9                          u1831 01EF  
                        u1815 01C3                          u1751 00BE                          u1735 0079  
                        u1920 02F4                          u1840 021B                          u1760 00E0  
                        u1921 02F3                          u1905 02AB                          u1841 021A  
                        u1825 01D2                          u1761 00DF                          u1850 0235  
                        u1770 0107                          u1930 0343                          u1915 02D6  
                        u1851 0234                          u1835 01EC                          u1771 0106  
                        u1931 0342                          u1860 0268                          u1780 011F  
                        u1940 0353                          u1685 0587                          u1925 02F0  
                        u1861 0267                          u1845 0217                          u1781 011E  
                        u1941 0352                          u1870 0277                          u1790 01A9  
                        u1950 0365                          u1695 058E                          u1871 0276  
                        u1855 0231                          u1791 01A8                          u1775 0103  
                        u1951 0364                          u1880 0286                          u1960 0375  
                        u1881 0285                          u1865 0264                          u1785 011B  
                        u1961 0374                          u1890 0295                          u1970 037D  
                        u1891 0294                          u1795 01A5                          u1971 037C  
                        u1980 038D                          u1885 0282                          u1981 038C  
                        u1990 0394                          u1895 0291                          u1991 0393  
                        _RBIE 005B                          _RBIF 0058                          _TMR2 0011  
                 _Car_Forward 061D                          abs@a 0074                          _base 004F  
                        _main 0320                          btemp 007E                          start 000C  
                       ??_abs 0020                         ??_isr 0070                         ?_main 0070  
                       _ANSEL 0188                         _T2CON 0012                         i1l332 05BC  
                       _PORTB 0006                         _PORTD 0008                         _PORTE 0009  
                       _TRISB 0086                         _TRISC 0087                         _TRISD 0088  
                       _TRISE 0089                         u86_20 05A3                         u86_21 05A2  
                       u87_20 05A7                         u87_21 05A6                         u88_20 05B8  
                       u88_21 05B7                         _Error 0051                         btemp0 007E  
                       btemp1 007F      __end_of_analogWrite_init 05FA                         pclath 000A  
                       status 0003                         wtemp0 007E             ??_read_line_Error 0074  
             __initialization 000F                  __end_of_main 048A                        ??_main 0045  
                      _ADCON0 001F                        _ADCON1 009F                        _ADRESH 001E  
                      _ADRESL 009E                        _CCPR1L 0015                        _CCPR2L 001B  
                      _ANSELH 0189                        i1l1290 05B8                        i1l1282 059F  
                      i1l1292 05BA                        i1l1284 05A3                        i1l1294 05BB  
                      i1l1286 05A7                        i1l1288 05B1                        _TRISC1 0439  
                      _TRISC2 043A                 Status_Car@sp1 0020                 Status_Car@sp2 0022  
                      ___wmul 0578                        ltemp0a 0080                        saved_w 007E  
                      ttemp0a 007F                        wtemp0a 007F                    _Status_Car 060D  
     __end_of__initialization 0021                __pcstackCOMMON 0070          read_line_Error@found 0074  
           motor_control@base 003D             motor_control@pwmL 0041             motor_control@pwmR 0043  
                  __pbssBANK0 0047                  ?_Car_Forward 0020                    __pmaintext 0320  
                     ?___wmul 0020         __end_of_motor_control 0320                    __pintentry 0004  
                     _CCP1CON 0017                       _CCP2CON 001D                       _GO_DONE 00F9  
        analogWrite_8bits@cp1 0075          analogWrite_8bits@cp2 0074               _read_line_Error 048A  
                 ?_Status_Car 0020             ?_analogWrite_init 0070            ??_analogWrite_init 0074  
                  _last_Error 0049                       __ptext1 048A                       __ptext2 0025  
                     __ptext3 05C3                       __ptext4 05FA                       __ptext5 0578  
                     __ptext6 060D                       __ptext7 061D                       __ptext8 062C  
                     __ptext9 05E3                       _autocar 0078             __end_of_limit_pwm 05E3  
        end_of_initialization 0021     analogWrite_init@frequency 0074          motor_control@d_error 0027  
     __end_of_read_line_Error 0578                  limit_pwm@val 0074  __end_of_Initialize_interrupt 063C  
              __end_of___wmul 059F           start_initialization 000F              Status_Car@status 0024  
                 __end_of_abs 060D                   __end_of_isr 05C3               Car_Forward@pwmL 0020  
             Car_Forward@pwmR 0022                      ??___wmul 0074              ?_read_line_Error 0070  
                 __pbssCOMMON 0076                     ___latbits 0002                 __pcstackBANK0 0020  
              _read_dataPortB 0076                  ??_Status_Car 0076            __end_of_Status_Car 061D  
                   _drivercar 0079          _Initialize_interrupt 0634                     _limit_pwm 05C3  
           interrupt_function 0004                ___wmul@product 0074             _analogWrite_8bits 062C  
          ?_analogWrite_8bits 0074             ___wmul@multiplier 0020           ??_analogWrite_8bits 0075  
       ?_Initialize_interrupt 0070                    ?_limit_pwm 0074       motor_control@correction 003F  
   __end_of_analogWrite_8bits 0634                 _motor_control 0025                      __ptext10 0634  
                    __ptext11 059F                      _kd_local 004D                 ??_Car_Forward 0076  
                    _kp_local 004B                      _lost_cnt 0047                ?_motor_control 0070  
            _analogWrite_init 05E3        ??_Initialize_interrupt 0074                   ??_limit_pwm 0076  
                    intlevel1 0000           __end_of_Car_Forward 062C         motor_control@kd_local 003B  
       motor_control@kp_local 0039             _motor_control$160 0033             _motor_control$161 0035  
           _motor_control$162 0037             _motor_control$155 0029             _motor_control$156 002B  
           _motor_control$157 002D             _motor_control$158 002F             _motor_control$159 0031  
             ??_motor_control 0025  
